(dp1
S'output'
p2
S"<type 'exceptions.AttributeError'> 'DAL' object has no attribute 'tipo'"
p3
sS'layer'
p4
S'/home/amauri/web2py/applications/combo/controllers/default.py'
p5
sS'code'
p6
S'# -*- coding: utf-8 -*-\n# this file is released under public domain and you can use without limitations\n\n# -------------------------------------------------------------------------\n# This is a sample controller\n# - index is the default action of any application\n# - user is required for authentication and authorization\n# - download is for downloading files uploaded in the db (does streaming)\n# -------------------------------------------------------------------------\n\n\ndef index():\n    """\n    example action using the internationalization operator T and flash\n    rendered by views/default/index.html or views/generic.html\n\n    if you need a simple wiki simply replace the two lines below with:\n    return auth.wiki()\n    """\n    response.flash = T("Hello World")\n    return dict(message=T(\'Welcome to web2py!\'))\n\n\ndef cadastroGraduacao():\n    form = SQLFORM(Graduacao)\n    if form.process().accepted:\n        session.flash = \'Nova gradua\xc3\xa7\xc3\xa3o cadastrada! %s\' % form.vars.cor\n        redirect(URL(\'cadastroGraduacao\'))\n    elif form.errors:\n        response.flash = \'ERRO! N\xc3\xa3o foi poss\xc3\xadvel cadastrar!\'\n    else:\n        if not response.flash:\n            response.flash = \'Preencha o formul\xc3\xa1rio!\'\n    return dict(form=form)\n\n\ndef user():\n    """\n    exposes:\n    http://..../[app]/default/user/login\n    http://..../[app]/default/user/logout\n    http://..../[app]/default/user/register\n    http://..../[app]/default/user/profile\n    http://..../[app]/default/user/retrieve_password\n    http://..../[app]/default/user/change_password\n    http://..../[app]/default/user/bulk_register\n    use @auth.requires_login()\n        @auth.requires_membership(\'group name\')\n        @auth.requires_permission(\'read\',\'table name\',record_id)\n    to decorate functions that need access control\n    also notice there is http://..../[app]/appadmin/manage/auth to allow administrator to manage users\n    """\n    return dict(form=auth())\n\n\n@cache.action()\ndef download():\n    """\n    allows downloading of uploaded files\n    http://..../[app]/default/download/[filename]\n    """\n    return response.download(request, db)\n\n\ndef call():\n    """\n    exposes services. for example:\n    http://..../[app]/default/call/jsonrpc\n    decorate with @services.jsonrpc the functions to expose\n    supports xml, json, xmlrpc, jsonrpc, amfrpc, rss, csv\n    """\n    return service()\n\n\n\nresponse._vars=response._caller(cadastroGraduacao)\n'
p7
sS'snapshot'
p8
(dp9
sS'traceback'
p10
S'Traceback (most recent call last):\n  File "/home/amauri/web2py/gluon/restricted.py", line 227, in restricted\n    exec ccode in environment\n  File "/home/amauri/web2py/applications/combo/controllers/default.py", line 76, in <module>\n  File "/home/amauri/web2py/gluon/globals.py", line 417, in <lambda>\n    self._caller = lambda f: f()\n  File "/home/amauri/web2py/applications/combo/controllers/default.py", line 25, in cadastroGraduacao\n    form = SQLFORM(Graduacao)\n  File "/home/amauri/web2py/gluon/sqlhtml.py", line 1286, in __init__\n    inp = field.widget(field, default)\n  File "/home/amauri/web2py/gluon/sqlhtml.py", line 453, in widget\n    options = requires[0].options()\n  File "/home/amauri/web2py/gluon/validators.py", line 598, in options\n    self.build_set()\n  File "/home/amauri/web2py/gluon/validators.py", line 569, in build_set\n    table = self.dbset.db[self.ktable]\n  File "/home/amauri/web2py/gluon/packages/dal/pydal/base.py", line 914, in __getitem__\n    return self.__getattr__(str(key))\n  File "/home/amauri/web2py/gluon/packages/dal/pydal/base.py", line 921, in __getattr__\n    return BasicStorage.__getattribute__(self, key)\nAttributeError: \'DAL\' object has no attribute \'tipo\'\n'
p11
s.