(dp1
S'output'
p2
S"<type 'exceptions.TypeError'> __call__() takes exactly 1 argument (2 given)"
p3
sS'layer'
p4
S'/home/amauri/projetosWeb2Py/em_testes/eventos/web2py/applications/lojadecarro/controllers/default.py'
p5
sS'code'
p6
S'# -*- coding: utf-8 -*-\n# this file is released under public domain and you can use without limitations\n\n# -------------------------------------------------------------------------\n# This is a sample controller\n# - index is the default action of any application\n# - user is required for authentication and authorization\n# - download is for downloading files uploaded in the db (does streaming)\n# -------------------------------------------------------------------------\n\n\ndef index():\n    """\n    example action using the internationalization operator T and flash\n    rendered by views/default/index.html or views/generic.html\n\n    if you need a simple wiki simply replace the two lines below with:\n    return auth.wiki()\n    """\n    response.flash = T("Hello World")\n    return dict(message=T(\'Welcome to web2py!\'))\n\ndef carro():\n    form = SQLFORM(db.carro)\n    return dict(form=form)\n\ndef mostra_carros():\n    return dict(form=crud(db.carro))\n\n    # grid = SQLFORM.grid(db.carro)\n    # var_env = request.env.request_method\n    # var_url = request.url\n    # var_a = request.application\n    # var_c = request.controller\n    # var_f = request.function\n    # resp_cookies = response.cookies\n    # return dict(grid=grid, var_env=var_env, var_url=var_url, var_a=var_a, var_c=var_c, var_f=var_f)\n\ndef user():\n    """\n    exposes:\n    http://..../[app]/default/user/login\n    http://..../[app]/default/user/logout\n    http://..../[app]/default/user/register\n    http://..../[app]/default/user/profile\n    http://..../[app]/default/user/retrieve_password\n    http://..../[app]/default/user/change_password\n    http://..../[app]/default/user/bulk_register\n    use @auth.requires_login()\n        @auth.requires_membership(\'group name\')\n        @auth.requires_permission(\'read\',\'table name\',record_id)\n    to decorate functions that need access control\n    also notice there is http://..../[app]/appadmin/manage/auth to allow administrator to manage users\n    """\n    return dict(form=auth())\n\n\n@cache.action()\ndef download():\n    """\n    allows downloading of uploaded files\n    http://..../[app]/default/download/[filename]\n    """\n    return response.download(request, db)\n\n\ndef call():\n    """\n    exposes services. for example:\n    http://..../[app]/default/call/jsonrpc\n    decorate with @services.jsonrpc the functions to expose\n    supports xml, json, xmlrpc, jsonrpc, amfrpc, rss, csv\n    """\n    return service()\n\n\n\nresponse._vars=response._caller(mostra_carros)\n'
p7
sS'snapshot'
p8
(dp9
sS'traceback'
p10
S'Traceback (most recent call last):\n  File "/home/amauri/projetosWeb2Py/em_testes/eventos/web2py/gluon/restricted.py", line 227, in restricted\n    exec ccode in environment\n  File "/home/amauri/projetosWeb2Py/em_testes/eventos/web2py/applications/lojadecarro/controllers/default.py", line 78, in <module>\n  File "/home/amauri/projetosWeb2Py/em_testes/eventos/web2py/gluon/globals.py", line 417, in <lambda>\n    self._caller = lambda f: f()\n  File "/home/amauri/projetosWeb2Py/em_testes/eventos/web2py/applications/lojadecarro/controllers/default.py", line 28, in mostra_carros\n    return dict(form=crud(db.carro))\nTypeError: __call__() takes exactly 1 argument (2 given)\n'
p11
s.