(dp1
S'output'
p2
S"<type 'exceptions.SyntaxError'> define_table argument is not a Field or Table: sig"
p3
sS'layer'
p4
S'/home/amauri/web2py/applications/ref_table/controllers/default.py'
p5
sS'code'
p6
S'# -*- coding: utf-8 -*-\n# this file is released under public domain and you can use without limitations\n\n# -------------------------------------------------------------------------\n# This is a sample controller\n# - index is the default action of any application\n# - user is required for authentication and authorization\n# - download is for downloading files uploaded in the db (does streaming)\n# -------------------------------------------------------------------------\n\n# gato    =   db.gatos.insert(nome=\xe2\x80\x9dSr.   Pelinhos\xe2\x80\x9d,  raca=\xe2\x80\x9dSphynx\xe2\x80\x9d)\n\ndef index():\n    form_sigla = SQLFORM.factory(\'sig\', requires = IS_IN_DB(db, \'sigla_cidade.id\', \'%(sigla)s\'))\n    form_cidade = SQLFORM.factory(\'nom\', requires = IS_IN_DB(db, \'nome_cidade.id\', \'%(sigla)s\'))\n    # form_nome_sigla = SQLFORM(SCNC)\n    if form_cidade.process().accepted:\n        SCNC.insert(nome_cid=request.vars.sigla, sigla_cid=request.vars.nome)\n    else:\n        response.flash = \'ERRO\'\n    return dict(form_sigla=form_sigla, form_cidade=form_cidade)\n\n\ndef user():\n    """\n    exposes:\n    http://..../[app]/default/user/login\n    http://..../[app]/default/user/logout\n    http://..../[app]/default/user/register\n    http://..../[app]/default/user/profile\n    http://..../[app]/default/user/retrieve_password\n    http://..../[app]/default/user/change_password\n    http://..../[app]/default/user/bulk_register\n    use @auth.requires_login()\n        @auth.requires_membership(\'group name\')\n        @auth.requires_permission(\'read\',\'table name\',record_id)\n    to decorate functions that need access control\n    also notice there is http://..../[app]/appadmin/manage/auth to allow administrator to manage users\n    """\n    return dict(form=auth())\n\n\n@cache.action()\ndef download():\n    """\n    allows downloading of uploaded files\n    http://..../[app]/default/download/[filename]\n    """\n    return response.download(request, db)\n\n\ndef call():\n    """\n    exposes services. for example:\n    http://..../[app]/default/call/jsonrpc\n    decorate with @services.jsonrpc the functions to expose\n    supports xml, json, xmlrpc, jsonrpc, amfrpc, rss, csv\n    """\n    return service()\n\n\n\nresponse._vars=response._caller(index)\n'
p7
sS'snapshot'
p8
(dp9
sS'traceback'
p10
S'Traceback (most recent call last):\n  File "/home/amauri/web2py/gluon/restricted.py", line 227, in restricted\n    exec ccode in environment\n  File "/home/amauri/web2py/applications/ref_table/controllers/default.py", line 63, in <module>\n  File "/home/amauri/web2py/gluon/globals.py", line 417, in <lambda>\n    self._caller = lambda f: f()\n  File "/home/amauri/web2py/applications/ref_table/controllers/default.py", line 14, in index\n    form_sigla = SQLFORM.factory(\'sig\', requires = IS_IN_DB(db, \'sigla_cidade.id\', \'%(sigla)s\'))\n  File "/home/amauri/web2py/gluon/sqlhtml.py", line 1808, in factory\n    return SQLFORM(DAL(None).define_table(table_name, *fields),\n  File "/home/amauri/web2py/gluon/packages/dal/pydal/base.py", line 834, in define_table\n    table = self.lazy_define_table(tablename,*fields,**args)\n  File "/home/amauri/web2py/gluon/packages/dal/pydal/base.py", line 851, in lazy_define_table\n    table = table_class(self, tablename, *fields, **args)\n  File "/home/amauri/web2py/gluon/packages/dal/pydal/objects.py", line 299, in __init__\n    field\nSyntaxError: define_table argument is not a Field or Table: sig\n'
p11
s.