(dp1
S'output'
p2
S"<type 'exceptions.NameError'> name 'item' is not defined"
p3
sS'layer'
p4
S'/home/amauri/web2py/applications/api_redtube/views/default/redpython.html'
p5
sS'code'
p6
S'response.write(\'<!DOCTYPE html>\\n<html>\\n<head>\\n\\t<meta charset="utf-8">\\n\\t<meta http-equiv="X-UA-Compatible" content="IE=edge">\\n\\t<title>\', escape=False)\nresponse.write(response.title or \'\')\nresponse.write(\'</title>\\n\\t<!-- Latest compiled and minified CSS -->\\n<link rel="stylesheet" href="https://maxcdn.bootstrapcdn.com/bootstrap/3.3.7/css/bootstrap.min.css" integrity="sha384-BVYiiSIFeK1dGmJRAkycuHAHRg32OmUcww7on3RYdg4Va+PmSTsz/K68vbdEjh4u" crossorigin="anonymous">\\n\\t<style>\\n\\t.txt-video{\\n\\twhite-space: nowrap;\\n\\twidth: 100%;\\n\\toverflow: hidden;\\n\\ttext-overflow: ellipsis;\\n\\t}\\n\\t.img-video{\\n\\twidth: 100%;\\n\\tcursor: pointer;\\n\\t}\\n\\t</style>\\n</head>\\n<body>\\n<div class="container-fluid">\\n\\t<div class="jumbotron">\\n\\t  <div class="container">\\n\\t    <h2>V\\xc3\\xaddeos</h2>\\n\\t    <div class="row">\\n\\t\\t  <div class="col-lg-6">\\n\\t\\t  \\t<form action="">\\n\\t\\t\\t    <div class="input-group">\\n\\t\\t\\t      <input name="texto" type="text" class="form-control" placeholder="Search for..." autofocus>\\n\\t\\t\\t      <span class="input-group-btn">\\n\\t\\t\\t        <button class="btn btn-default btn-primary" type="submit">Go!</button>\\n\\t\\t\\t      </span>\\n\\t\\t\\t    </div><!-- /input-group -->\\n\\t\\t    </form>\\n\\t\\t  </div><!-- /.col-lg-6 -->\\n\\t\\t</div><!-- /.row -->\\n\\t\\t  </div>\\n\\t</div>\\n\\n\\t<div class="modal fade" tabindex="-1" role="dialog">\\n\\t  <div class="modal-dialog" role="document">\\n\\t    <div class="modal-content">\\n\\t      <div class="modal-header">\\n\\t        <button type="button" class="close" data-dismiss="modal" aria-label="Close"><span aria-hidden="true">&times;</span></button>\\n\\t        <h4 class="modal-title">\', escape=False)\nresponse.write(item[\'title\'])\nresponse.write(\'</h4>\\n\\t      </div>\\n\\t      <div class="modal-body">\\n\\t        <p>Dura\\xc3\\xa7\\xc3\\xa3o: \', escape=False)\nresponse.write(item[\'duration\'])\nresponse.write(\'&hellip;</p>\\n\\t      </div>\\n\\t      <div class="modal-footer">\\n\\t        \\n\\t      </div>\\n\\t    </div><!-- /.modal-content -->\\n\\t  </div><!-- /.modal-dialog -->\\n\\t</div><!-- /.modal -->\\n\\n\\t<h4>\', escape=False)\nresponse.write(qtde)\nresponse.write(\'</h4>\\n\\t\\t\\t<div class="row">\\n\\t\\t\\t\\t\', escape=False)\nfor item in lista:\n    response.write(\'\\n\\t\\t\\t\\t  <div class="col-sm-6 col-md-3">\\n\\t\\t\\t\\t    <div class="thumbnail" style="height:350px">\\n\\t\\t\\t\\t      <div class="caption">\\n\\t\\t\\t\\t        <h4>\', escape=False)\n    response.write(item[\'title\'])\n    response.write(\'</h4>\\n\\t\\t\\t\\t        <p class="txt-video">Dura\\xc3\\xa7\\xc3\\xa3o: \', escape=False)\n    response.write(item[\'duration\'])\n    response.write(\'</p>\\n\\t\\t\\t\\t      </div>\\n\\t\\t\\t\\t    </div>\\n\\t\\t\\t\\t  </div>\\n\\t\\t\\t\\t\', escape=False)\n    pass\nresponse.write(\'\\n\\t\\t\\t</div>\\n</div>\\n<!-- Latest compiled and minified JavaScript -->\\n<script src="https://maxcdn.bootstrapcdn.com/bootstrap/3.3.7/js/bootstrap.min.js" integrity="sha384-Tc5IQib027qvyjSMfHjOMaLkfuWVxZxUPnCJA7l2mCWNIpG9mGCD8wGNIcPD7Txa" crossorigin="anonymous"></script>\\n\\t\\n\\n</body>\\n</html>\', escape=False)'
p7
sS'snapshot'
p8
(dp9
S'exception'
p10
(dp11
S'__hash__'
p12
S"<method-wrapper '__hash__' of exceptions.NameError object>"
p13
sS'__setattr__'
p14
S"<method-wrapper '__setattr__' of exceptions.NameError object>"
p15
sS'__reduce_ex__'
p16
S'<built-in method __reduce_ex__ of exceptions.NameError object>'
p17
sS'__getslice__'
p18
S"<method-wrapper '__getslice__' of exceptions.NameError object>"
p19
sS'__getitem__'
p20
S"<method-wrapper '__getitem__' of exceptions.NameError object>"
p21
sS'__setstate__'
p22
S'<built-in method __setstate__ of exceptions.NameError object>'
p23
sS'args'
p24
S'("name \'item\' is not defined",)'
p25
sS'__reduce__'
p26
S'<built-in method __reduce__ of exceptions.NameError object>'
p27
sS'__str__'
p28
S"<method-wrapper '__str__' of exceptions.NameError object>"
p29
sS'__format__'
p30
S'<built-in method __format__ of exceptions.NameError object>'
p31
sS'__getattribute__'
p32
S"<method-wrapper '__getattribute__' of exceptions.NameError object>"
p33
sS'__class__'
p34
S"<type 'exceptions.NameError'>"
p35
sS'__unicode__'
p36
S'<built-in method __unicode__ of exceptions.NameError object>'
p37
sS'__delattr__'
p38
S"<method-wrapper '__delattr__' of exceptions.NameError object>"
p39
sS'__subclasshook__'
p40
S'<built-in method __subclasshook__ of type object>'
p41
sS'__repr__'
p42
S"<method-wrapper '__repr__' of exceptions.NameError object>"
p43
sS'__dict__'
p44
S'{}'
p45
sS'__sizeof__'
p46
S'<built-in method __sizeof__ of exceptions.NameError object>'
p47
sS'__doc__'
p48
S"'Name not found globally.'"
p49
sS'__init__'
p50
S"<method-wrapper '__init__' of exceptions.NameError object>"
p51
sS'__new__'
p52
S'<built-in method __new__ of type object>'
p53
ssS'evalue'
p54
S"name 'item' is not defined"
p55
sS'request'
p56
cgluon.html
XML_unpickle
p57
(S's\x7f\xc1\x00\x00<div><table><tr><td style="font-weight:bold;vertical-align:top;">ajax</td><td style="vertical-align:top;">:</td><td><div>False</div></td></tr><tr><td style="font-weight:bold;vertical-align:top;">application</td><td style="vertical-align:top;">:</td><td><div>api_redtube</div></td></tr><tr><td style="font-weight:bold;vertical-align:top;">args</td><td style="vertical-align:top;">:</td><td><div><table></table></div></td></tr><tr><td style="font-weight:bold;vertical-align:top;">cid</td><td style="vertical-align:top;">:</td><td><div>None</div></td></tr><tr><td style="font-weight:bold;vertical-align:top;">client</td><td style="vertical-align:top;">:</td><td><div>127.0.0.1</div></td></tr><tr><td style="font-weight:bold;vertical-align:top;">controller</td><td style="vertical-align:top;">:</td><td><div>default</div></td></tr><tr><td style="font-weight:bold;vertical-align:top;">cookies</td><td style="vertical-align:top;">:</td><td><div><table><tr><td style="font-weight:bold;vertical-align:top;">session_id_admin</td><td style="vertical-align:top;">:</td><td><div>127.0.0.1-cb44291e-cc9f-48a2-8d2f-d7dd3f1a55e9<table><tr><td style="font-weight:bold;vertical-align:top;">comment</td><td style="vertical-align:top;">:</td><td><div></div></td></tr><tr><td style="font-weight:bold;vertical-align:top;">domain</td><td style="vertical-align:top;">:</td><td><div></div></td></tr><tr><td style="font-weight:bold;vertical-align:top;">expires</td><td style="vertical-align:top;">:</td><td><div></div></td></tr><tr><td style="font-weight:bold;vertical-align:top;">httponly</td><td style="vertical-align:top;">:</td><td><div></div></td></tr><tr><td style="font-weight:bold;vertical-align:top;">max-age</td><td style="vertical-align:top;">:</td><td><div></div></td></tr><tr><td style="font-weight:bold;vertical-align:top;">path</td><td style="vertical-align:top;">:</td><td><div></div></td></tr><tr><td style="font-weight:bold;vertical-align:top;">secure</td><td style="vertical-align:top;">:</td><td><div></div></td></tr><tr><td style="font-weight:bold;vertical-align:top;">version</td><td style="vertical-align:top;">:</td><td><div></div></td></tr></table></div></td></tr><tr><td style="font-weight:bold;vertical-align:top;">session_id_api_redtube</td><td style="vertical-align:top;">:</td><td><div>127.0.0.1-3109ef89-8198-4eb3-abdc-f121410b7b36<table><tr><td style="font-weight:bold;vertical-align:top;">comment</td><td style="vertical-align:top;">:</td><td><div></div></td></tr><tr><td style="font-weight:bold;vertical-align:top;">domain</td><td style="vertical-align:top;">:</td><td><div></div></td></tr><tr><td style="font-weight:bold;vertical-align:top;">expires</td><td style="vertical-align:top;">:</td><td><div></div></td></tr><tr><td style="font-weight:bold;vertical-align:top;">httponly</td><td style="vertical-align:top;">:</td><td><div></div></td></tr><tr><td style="font-weight:bold;vertical-align:top;">max-age</td><td style="vertical-align:top;">:</td><td><div></div></td></tr><tr><td style="font-weight:bold;vertical-align:top;">path</td><td style="vertical-align:top;">:</td><td><div></div></td></tr><tr><td style="font-weight:bold;vertical-align:top;">secure</td><td style="vertical-align:top;">:</td><td><div></div></td></tr><tr><td style="font-weight:bold;vertical-align:top;">version</td><td style="vertical-align:top;">:</td><td><div></div></td></tr></table></div></td></tr><tr><td style="font-weight:bold;vertical-align:top;">session_id_apigmail</td><td style="vertical-align:top;">:</td><td><div>127.0.0.1-531ae575-8189-43a1-af0f-16021e1698e4<table><tr><td style="font-weight:bold;vertical-align:top;">comment</td><td style="vertical-align:top;">:</td><td><div></div></td></tr><tr><td style="font-weight:bold;vertical-align:top;">domain</td><td style="vertical-align:top;">:</td><td><div></div></td></tr><tr><td style="font-weight:bold;vertical-align:top;">expires</td><td style="vertical-align:top;">:</td><td><div></div></td></tr><tr><td style="font-weight:bold;vertical-align:top;">httponly</td><td style="vertical-align:top;">:</td><td><div></div></td></tr><tr><td style="font-weight:bold;vertical-align:top;">max-age</td><td style="vertical-align:top;">:</td><td><div></div></td></tr><tr><td style="font-weight:bold;vertical-align:top;">path</td><td style="vertical-align:top;">:</td><td><div></div></td></tr><tr><td style="font-weight:bold;vertical-align:top;">secure</td><td style="vertical-align:top;">:</td><td><div></div></td></tr><tr><td style="font-weight:bold;vertical-align:top;">version</td><td style="vertical-align:top;">:</td><td><div></div></td></tr></table></div></td></tr><tr><td style="font-weight:bold;vertical-align:top;">session_id_chamados</td><td style="vertical-align:top;">:</td><td><div>127.0.0.1-a7514459-d7fc-4544-b740-71cf2dfd4f38<table><tr><td style="font-weight:bold;vertical-align:top;">comment</td><td style="vertical-align:top;">:</td><td><div></div></td></tr><tr><td style="font-weight:bold;vertical-align:top;">domain</td><td style="vertical-align:top;">:</td><td><div></div></td></tr><tr><td style="font-weight:bold;vertical-align:top;">expires</td><td style="vertical-align:top;">:</td><td><div></div></td></tr><tr><td style="font-weight:bold;vertical-align:top;">httponly</td><td style="vertical-align:top;">:</td><td><div></div></td></tr><tr><td style="font-weight:bold;vertical-align:top;">max-age</td><td style="vertical-align:top;">:</td><td><div></div></td></tr><tr><td style="font-weight:bold;vertical-align:top;">path</td><td style="vertical-align:top;">:</td><td><div></div></td></tr><tr><td style="font-weight:bold;vertical-align:top;">secure</td><td style="vertical-align:top;">:</td><td><div></div></td></tr><tr><td style="font-weight:bold;vertical-align:top;">version</td><td style="vertical-align:top;">:</td><td><div></div></td></tr></table></div></td></tr><tr><td style="font-weight:bold;vertical-align:top;">session_id_combo</td><td style="vertical-align:top;">:</td><td><div>127.0.0.1-80c5b5fa-0b08-4da0-877c-4cfe75b27ce5<table><tr><td style="font-weight:bold;vertical-align:top;">comment</td><td style="vertical-align:top;">:</td><td><div></div></td></tr><tr><td style="font-weight:bold;vertical-align:top;">domain</td><td style="vertical-align:top;">:</td><td><div></div></td></tr><tr><td style="font-weight:bold;vertical-align:top;">expires</td><td style="vertical-align:top;">:</td><td><div></div></td></tr><tr><td style="font-weight:bold;vertical-align:top;">httponly</td><td style="vertical-align:top;">:</td><td><div></div></td></tr><tr><td style="font-weight:bold;vertical-align:top;">max-age</td><td style="vertical-align:top;">:</td><td><div></div></td></tr><tr><td style="font-weight:bold;vertical-align:top;">path</td><td style="vertical-align:top;">:</td><td><div></div></td></tr><tr><td style="font-weight:bold;vertical-align:top;">secure</td><td style="vertical-align:top;">:</td><td><div></div></td></tr><tr><td style="font-weight:bold;vertical-align:top;">version</td><td style="vertical-align:top;">:</td><td><div></div></td></tr></table></div></td></tr><tr><td style="font-weight:bold;vertical-align:top;">session_id_distancia</td><td style="vertical-align:top;">:</td><td><div>127.0.0.1-a3156ed4-2c8e-4f71-b9b5-05b310949e27<table><tr><td style="font-weight:bold;vertical-align:top;">comment</td><td style="vertical-align:top;">:</td><td><div></div></td></tr><tr><td style="font-weight:bold;vertical-align:top;">domain</td><td style="vertical-align:top;">:</td><td><div></div></td></tr><tr><td style="font-weight:bold;vertical-align:top;">expires</td><td style="vertical-align:top;">:</td><td><div></div></td></tr><tr><td style="font-weight:bold;vertical-align:top;">httponly</td><td style="vertical-align:top;">:</td><td><div></div></td></tr><tr><td style="font-weight:bold;vertical-align:top;">max-age</td><td style="vertical-align:top;">:</td><td><div></div></td></tr><tr><td style="font-weight:bold;vertical-align:top;">path</td><td style="vertical-align:top;">:</td><td><div></div></td></tr><tr><td style="font-weight:bold;vertical-align:top;">secure</td><td style="vertical-align:top;">:</td><td><div></div></td></tr><tr><td style="font-weight:bold;vertical-align:top;">version</td><td style="vertical-align:top;">:</td><td><div></div></td></tr></table></div></td></tr><tr><td style="font-weight:bold;vertical-align:top;">session_id_ecommerce</td><td style="vertical-align:top;">:</td><td><div>127.0.0.1-41a4471e-09eb-4808-af97-efb971086a1f<table><tr><td style="font-weight:bold;vertical-align:top;">comment</td><td style="vertical-align:top;">:</td><td><div></div></td></tr><tr><td style="font-weight:bold;vertical-align:top;">domain</td><td style="vertical-align:top;">:</td><td><div></div></td></tr><tr><td style="font-weight:bold;vertical-align:top;">expires</td><td style="vertical-align:top;">:</td><td><div></div></td></tr><tr><td style="font-weight:bold;vertical-align:top;">httponly</td><td style="vertical-align:top;">:</td><td><div></div></td></tr><tr><td style="font-weight:bold;vertical-align:top;">max-age</td><td style="vertical-align:top;">:</td><td><div></div></td></tr><tr><td style="font-weight:bold;vertical-align:top;">path</td><td style="vertical-align:top;">:</td><td><div></div></td></tr><tr><td style="font-weight:bold;vertical-align:top;">secure</td><td style="vertical-align:top;">:</td><td><div></div></td></tr><tr><td style="font-weight:bold;vertical-align:top;">version</td><td style="vertical-align:top;">:</td><td><div></div></td></tr></table></div></td></tr><tr><td style="font-weight:bold;vertical-align:top;">session_id_emailgmailapi</td><td style="vertical-align:top;">:</td><td><div>127.0.0.1-ac79a545-5915-4a39-80d0-5d4afc169b4e<table><tr><td style="font-weight:bold;vertical-align:top;">comment</td><td style="vertical-align:top;">:</td><td><div></div></td></tr><tr><td style="font-weight:bold;vertical-align:top;">domain</td><td style="vertical-align:top;">:</td><td><div></div></td></tr><tr><td style="font-weight:bold;vertical-align:top;">expires</td><td style="vertical-align:top;">:</td><td><div></div></td></tr><tr><td style="font-weight:bold;vertical-align:top;">httponly</td><td style="vertical-align:top;">:</td><td><div></div></td></tr><tr><td style="font-weight:bold;vertical-align:top;">max-age</td><td style="vertical-align:top;">:</td><td><div></div></td></tr><tr><td style="font-weight:bold;vertical-align:top;">path</td><td style="vertical-align:top;">:</td><td><div></div></td></tr><tr><td style="font-weight:bold;vertical-align:top;">secure</td><td style="vertical-align:top;">:</td><td><div></div></td></tr><tr><td style="font-weight:bold;vertical-align:top;">version</td><td style="vertical-align:top;">:</td><td><div></div></td></tr></table></div></td></tr><tr><td style="font-weight:bold;vertical-align:top;">session_id_eventos</td><td style="vertical-align:top;">:</td><td><div>127.0.0.1-99d5284d-eb7d-48bb-a0bc-54b4642ae270<table><tr><td style="font-weight:bold;vertical-align:top;">comment</td><td style="vertical-align:top;">:</td><td><div></div></td></tr><tr><td style="font-weight:bold;vertical-align:top;">domain</td><td style="vertical-align:top;">:</td><td><div></div></td></tr><tr><td style="font-weight:bold;vertical-align:top;">expires</td><td style="vertical-align:top;">:</td><td><div></div></td></tr><tr><td style="font-weight:bold;vertical-align:top;">httponly</td><td style="vertical-align:top;">:</td><td><div></div></td></tr><tr><td style="font-weight:bold;vertical-align:top;">max-age</td><td style="vertical-align:top;">:</td><td><div></div></td></tr><tr><td style="font-weight:bold;vertical-align:top;">path</td><td style="vertical-align:top;">:</td><td><div></div></td></tr><tr><td style="font-weight:bold;vertical-align:top;">secure</td><td style="vertical-align:top;">:</td><td><div></div></td></tr><tr><td style="font-weight:bold;vertical-align:top;">version</td><td style="vertical-align:top;">:</td><td><div></div></td></tr></table></div></td></tr><tr><td style="font-weight:bold;vertical-align:top;">session_id_eventos_teste</td><td style="vertical-align:top;">:</td><td><div>127.0.0.1-318c166f-de46-4ae8-b83b-ee5966d2b16f<table><tr><td style="font-weight:bold;vertical-align:top;">comment</td><td style="vertical-align:top;">:</td><td><div></div></td></tr><tr><td style="font-weight:bold;vertical-align:top;">domain</td><td style="vertical-align:top;">:</td><td><div></div></td></tr><tr><td style="font-weight:bold;vertical-align:top;">expires</td><td style="vertical-align:top;">:</td><td><div></div></td></tr><tr><td style="font-weight:bold;vertical-align:top;">httponly</td><td style="vertical-align:top;">:</td><td><div></div></td></tr><tr><td style="font-weight:bold;vertical-align:top;">max-age</td><td style="vertical-align:top;">:</td><td><div></div></td></tr><tr><td style="font-weight:bold;vertical-align:top;">path</td><td style="vertical-align:top;">:</td><td><div></div></td></tr><tr><td style="font-weight:bold;vertical-align:top;">secure</td><td style="vertical-align:top;">:</td><td><div></div></td></tr><tr><td style="font-weight:bold;vertical-align:top;">version</td><td style="vertical-align:top;">:</td><td><div></div></td></tr></table></div></td></tr><tr><td style="font-weight:bold;vertical-align:top;">session_id_eventosweb</td><td style="vertical-align:top;">:</td><td><div>127.0.0.1-933ecaa7-9106-423c-a12c-96c29c5eae13<table><tr><td style="font-weight:bold;vertical-align:top;">comment</td><td style="vertical-align:top;">:</td><td><div></div></td></tr><tr><td style="font-weight:bold;vertical-align:top;">domain</td><td style="vertical-align:top;">:</td><td><div></div></td></tr><tr><td style="font-weight:bold;vertical-align:top;">expires</td><td style="vertical-align:top;">:</td><td><div></div></td></tr><tr><td style="font-weight:bold;vertical-align:top;">httponly</td><td style="vertical-align:top;">:</td><td><div></div></td></tr><tr><td style="font-weight:bold;vertical-align:top;">max-age</td><td style="vertical-align:top;">:</td><td><div></div></td></tr><tr><td style="font-weight:bold;vertical-align:top;">path</td><td style="vertical-align:top;">:</td><td><div></div></td></tr><tr><td style="font-weight:bold;vertical-align:top;">secure</td><td style="vertical-align:top;">:</td><td><div></div></td></tr><tr><td style="font-weight:bold;vertical-align:top;">version</td><td style="vertical-align:top;">:</td><td><div></div></td></tr></table></div></td></tr><tr><td style="font-weight:bold;vertical-align:top;">session_id_examples</td><td style="vertical-align:top;">:</td><td><div>True<table><tr><td style="font-weight:bold;vertical-align:top;">comment</td><td style="vertical-align:top;">:</td><td><div></div></td></tr><tr><td style="font-weight:bold;vertical-align:top;">domain</td><td style="vertical-align:top;">:</td><td><div></div></td></tr><tr><td style="font-weight:bold;vertical-align:top;">expires</td><td style="vertical-align:top;">:</td><td><div></div></td></tr><tr><td style="font-weight:bold;vertical-align:top;">httponly</td><td style="vertical-align:top;">:</td><td><div></div></td></tr><tr><td style="font-weight:bold;vertical-align:top;">max-age</td><td style="vertical-align:top;">:</td><td><div></div></td></tr><tr><td style="font-weight:bold;vertical-align:top;">path</td><td style="vertical-align:top;">:</td><td><div></div></td></tr><tr><td style="font-weight:bold;vertical-align:top;">secure</td><td style="vertical-align:top;">:</td><td><div></div></td></tr><tr><td style="font-weight:bold;vertical-align:top;">version</td><td style="vertical-align:top;">:</td><td><div></div></td></tr></table></div></td></tr><tr><td style="font-weight:bold;vertical-align:top;">session_id_heroku_gmail</td><td style="vertical-align:top;">:</td><td><div>127.0.0.1-524129bc-83e3-428f-837a-ace350d5108a<table><tr><td style="font-weight:bold;vertical-align:top;">comment</td><td style="vertical-align:top;">:</td><td><div></div></td></tr><tr><td style="font-weight:bold;vertical-align:top;">domain</td><td style="vertical-align:top;">:</td><td><div></div></td></tr><tr><td style="font-weight:bold;vertical-align:top;">expires</td><td style="vertical-align:top;">:</td><td><div></div></td></tr><tr><td style="font-weight:bold;vertical-align:top;">httponly</td><td style="vertical-align:top;">:</td><td><div></div></td></tr><tr><td style="font-weight:bold;vertical-align:top;">max-age</td><td style="vertical-align:top;">:</td><td><div></div></td></tr><tr><td style="font-weight:bold;vertical-align:top;">path</td><td style="vertical-align:top;">:</td><td><div></div></td></tr><tr><td style="font-weight:bold;vertical-align:top;">secure</td><td style="vertical-align:top;">:</td><td><div></div></td></tr><tr><td style="font-weight:bold;vertical-align:top;">version</td><td style="vertical-align:top;">:</td><td><div></div></td></tr></table></div></td></tr><tr><td style="font-weight:bold;vertical-align:top;">session_id_lojadecarro</td><td style="vertical-align:top;">:</td><td><div>127.0.0.1-2f08517f-b9c8-4b65-b3c5-bb336ad62ea9<table><tr><td style="font-weight:bold;vertical-align:top;">comment</td><td style="vertical-align:top;">:</td><td><div></div></td></tr><tr><td style="font-weight:bold;vertical-align:top;">domain</td><td style="vertical-align:top;">:</td><td><div></div></td></tr><tr><td style="font-weight:bold;vertical-align:top;">expires</td><td style="vertical-align:top;">:</td><td><div></div></td></tr><tr><td style="font-weight:bold;vertical-align:top;">httponly</td><td style="vertical-align:top;">:</td><td><div></div></td></tr><tr><td style="font-weight:bold;vertical-align:top;">max-age</td><td style="vertical-align:top;">:</td><td><div></div></td></tr><tr><td style="font-weight:bold;vertical-align:top;">path</td><td style="vertical-align:top;">:</td><td><div></div></td></tr><tr><td style="font-weight:bold;vertical-align:top;">secure</td><td style="vertical-align:top;">:</td><td><div></div></td></tr><tr><td style="font-weight:bold;vertical-align:top;">version</td><td style="vertical-align:top;">:</td><td><div></div></td></tr></table></div></td></tr><tr><td style="font-weight:bold;vertical-align:top;">session_id_myappzero</td><td style="vertical-align:top;">:</td><td><div>127.0.0.1-e27568c5-40f2-4f8b-9684-a7e0074a4252<table><tr><td style="font-weight:bold;vertical-align:top;">comment</td><td style="vertical-align:top;">:</td><td><div></div></td></tr><tr><td style="font-weight:bold;vertical-align:top;">domain</td><td style="vertical-align:top;">:</td><td><div></div></td></tr><tr><td style="font-weight:bold;vertical-align:top;">expires</td><td style="vertical-align:top;">:</td><td><div></div></td></tr><tr><td style="font-weight:bold;vertical-align:top;">httponly</td><td style="vertical-align:top;">:</td><td><div></div></td></tr><tr><td style="font-weight:bold;vertical-align:top;">max-age</td><td style="vertical-align:top;">:</td><td><div></div></td></tr><tr><td style="font-weight:bold;vertical-align:top;">path</td><td style="vertical-align:top;">:</td><td><div></div></td></tr><tr><td style="font-weight:bold;vertical-align:top;">secure</td><td style="vertical-align:top;">:</td><td><div></div></td></tr><tr><td style="font-weight:bold;vertical-align:top;">version</td><td style="vertical-align:top;">:</td><td><div></div></td></tr></table></div></td></tr><tr><td style="font-weight:bold;vertical-align:top;">session_id_rsvpservice</td><td style="vertical-align:top;">:</td><td><div>127.0.0.1-921e8044-914f-4627-b0f4-97f7be71f42c<table><tr><td style="font-weight:bold;vertical-align:top;">comment</td><td style="vertical-align:top;">:</td><td><div></div></td></tr><tr><td style="font-weight:bold;vertical-align:top;">domain</td><td style="vertical-align:top;">:</td><td><div></div></td></tr><tr><td style="font-weight:bold;vertical-align:top;">expires</td><td style="vertical-align:top;">:</td><td><div></div></td></tr><tr><td style="font-weight:bold;vertical-align:top;">httponly</td><td style="vertical-align:top;">:</td><td><div></div></td></tr><tr><td style="font-weight:bold;vertical-align:top;">max-age</td><td style="vertical-align:top;">:</td><td><div></div></td></tr><tr><td style="font-weight:bold;vertical-align:top;">path</td><td style="vertical-align:top;">:</td><td><div></div></td></tr><tr><td style="font-weight:bold;vertical-align:top;">secure</td><td style="vertical-align:top;">:</td><td><div></div></td></tr><tr><td style="font-weight:bold;vertical-align:top;">version</td><td style="vertical-align:top;">:</td><td><div></div></td></tr></table></div></td></tr><tr><td style="font-weight:bold;vertical-align:top;">session_id_teste_mysql</td><td style="vertical-align:top;">:</td><td><div>127.0.0.1-934c3d59-bd6e-4a18-a966-a87bc691e088<table><tr><td style="font-weight:bold;vertical-align:top;">comment</td><td style="vertical-align:top;">:</td><td><div></div></td></tr><tr><td style="font-weight:bold;vertical-align:top;">domain</td><td style="vertical-align:top;">:</td><td><div></div></td></tr><tr><td style="font-weight:bold;vertical-align:top;">expires</td><td style="vertical-align:top;">:</td><td><div></div></td></tr><tr><td style="font-weight:bold;vertical-align:top;">httponly</td><td style="vertical-align:top;">:</td><td><div></div></td></tr><tr><td style="font-weight:bold;vertical-align:top;">max-age</td><td style="vertical-align:top;">:</td><td><div></div></td></tr><tr><td style="font-weight:bold;vertical-align:top;">path</td><td style="vertical-align:top;">:</td><td><div></div></td></tr><tr><td style="font-weight:bold;vertical-align:top;">secure</td><td style="vertical-align:top;">:</td><td><div></div></td></tr><tr><td style="font-weight:bold;vertical-align:top;">version</td><td style="vertical-align:top;">:</td><td><div></div></td></tr></table></div></td></tr><tr><td style="font-weight:bold;vertical-align:top;">session_id_teste_post</td><td style="vertical-align:top;">:</td><td><div>127.0.0.1-600f93d0-67a6-409b-837e-9ba769edd2f9<table><tr><td style="font-weight:bold;vertical-align:top;">comment</td><td style="vertical-align:top;">:</td><td><div></div></td></tr><tr><td style="font-weight:bold;vertical-align:top;">domain</td><td style="vertical-align:top;">:</td><td><div></div></td></tr><tr><td style="font-weight:bold;vertical-align:top;">expires</td><td style="vertical-align:top;">:</td><td><div></div></td></tr><tr><td style="font-weight:bold;vertical-align:top;">httponly</td><td style="vertical-align:top;">:</td><td><div></div></td></tr><tr><td style="font-weight:bold;vertical-align:top;">max-age</td><td style="vertical-align:top;">:</td><td><div></div></td></tr><tr><td style="font-weight:bold;vertical-align:top;">path</td><td style="vertical-align:top;">:</td><td><div></div></td></tr><tr><td style="font-weight:bold;vertical-align:top;">secure</td><td style="vertical-align:top;">:</td><td><div></div></td></tr><tr><td style="font-weight:bold;vertical-align:top;">version</td><td style="vertical-align:top;">:</td><td><div></div></td></tr></table></div></td></tr><tr><td style="font-weight:bold;vertical-align:top;">session_id_utils</td><td style="vertical-align:top;">:</td><td><div>127.0.0.1-604d8136-3f0d-4762-8d2e-7ace335cedec<table><tr><td style="font-weight:bold;vertical-align:top;">comment</td><td style="vertical-align:top;">:</td><td><div></div></td></tr><tr><td style="font-weight:bold;vertical-align:top;">domain</td><td style="vertical-align:top;">:</td><td><div></div></td></tr><tr><td style="font-weight:bold;vertical-align:top;">expires</td><td style="vertical-align:top;">:</td><td><div></div></td></tr><tr><td style="font-weight:bold;vertical-align:top;">httponly</td><td style="vertical-align:top;">:</td><td><div></div></td></tr><tr><td style="font-weight:bold;vertical-align:top;">max-age</td><td style="vertical-align:top;">:</td><td><div></div></td></tr><tr><td style="font-weight:bold;vertical-align:top;">path</td><td style="vertical-align:top;">:</td><td><div></div></td></tr><tr><td style="font-weight:bold;vertical-align:top;">secure</td><td style="vertical-align:top;">:</td><td><div></div></td></tr><tr><td style="font-weight:bold;vertical-align:top;">version</td><td style="vertical-align:top;">:</td><td><div></div></td></tr></table></div></td></tr><tr><td style="font-weight:bold;vertical-align:top;">session_id_web2clinic</td><td style="vertical-align:top;">:</td><td><div>127.0.0.1-bdd63fb7-e434-4208-9b74-b7522ec28531<table><tr><td style="font-weight:bold;vertical-align:top;">comment</td><td style="vertical-align:top;">:</td><td><div></div></td></tr><tr><td style="font-weight:bold;vertical-align:top;">domain</td><td style="vertical-align:top;">:</td><td><div></div></td></tr><tr><td style="font-weight:bold;vertical-align:top;">expires</td><td style="vertical-align:top;">:</td><td><div></div></td></tr><tr><td style="font-weight:bold;vertical-align:top;">httponly</td><td style="vertical-align:top;">:</td><td><div></div></td></tr><tr><td style="font-weight:bold;vertical-align:top;">max-age</td><td style="vertical-align:top;">:</td><td><div></div></td></tr><tr><td style="font-weight:bold;vertical-align:top;">path</td><td style="vertical-align:top;">:</td><td><div></div></td></tr><tr><td style="font-weight:bold;vertical-align:top;">secure</td><td style="vertical-align:top;">:</td><td><div></div></td></tr><tr><td style="font-weight:bold;vertical-align:top;">version</td><td style="vertical-align:top;">:</td><td><div></div></td></tr></table></div></td></tr><tr><td style="font-weight:bold;vertical-align:top;">session_id_website</td><td style="vertical-align:top;">:</td><td><div>127.0.0.1-b834c6a1-2b94-451d-ae31-ed29fbfd8f85<table><tr><td style="font-weight:bold;vertical-align:top;">comment</td><td style="vertical-align:top;">:</td><td><div></div></td></tr><tr><td style="font-weight:bold;vertical-align:top;">domain</td><td style="vertical-align:top;">:</td><td><div></div></td></tr><tr><td style="font-weight:bold;vertical-align:top;">expires</td><td style="vertical-align:top;">:</td><td><div></div></td></tr><tr><td style="font-weight:bold;vertical-align:top;">httponly</td><td style="vertical-align:top;">:</td><td><div></div></td></tr><tr><td style="font-weight:bold;vertical-align:top;">max-age</td><td style="vertical-align:top;">:</td><td><div></div></td></tr><tr><td style="font-weight:bold;vertical-align:top;">path</td><td style="vertical-align:top;">:</td><td><div></div></td></tr><tr><td style="font-weight:bold;vertical-align:top;">secure</td><td style="vertical-align:top;">:</td><td><div></div></td></tr><tr><td style="font-weight:bold;vertical-align:top;">version</td><td style="vertical-align:top;">:</td><td><div></div></td></tr></table></div></td></tr><tr><td style="font-weight:bold;vertical-align:top;">session_id_welcome</td><td style="vertical-align:top;">:</td><td><div>127.0.0.1-14c15219-2b39-4674-94c4-18d5a349e9da<table><tr><td style="font-weight:bold;vertical-align:top;">comment</td><td style="vertical-align:top;">:</td><td><div></div></td></tr><tr><td style="font-weight:bold;vertical-align:top;">domain</td><td style="vertical-align:top;">:</td><td><div></div></td></tr><tr><td style="font-weight:bold;vertical-align:top;">expires</td><td style="vertical-align:top;">:</td><td><div></div></td></tr><tr><td style="font-weight:bold;vertical-align:top;">httponly</td><td style="vertical-align:top;">:</td><td><div></div></td></tr><tr><td style="font-weight:bold;vertical-align:top;">max-age</td><td style="vertical-align:top;">:</td><td><div></div></td></tr><tr><td style="font-weight:bold;vertical-align:top;">path</td><td style="vertical-align:top;">:</td><td><div></div></td></tr><tr><td style="font-weight:bold;vertical-align:top;">secure</td><td style="vertical-align:top;">:</td><td><div></div></td></tr><tr><td style="font-weight:bold;vertical-align:top;">version</td><td style="vertical-align:top;">:</td><td><div></div></td></tr></table></div></td></tr></table></div></td></tr><tr><td style="font-weight:bold;vertical-align:top;">env</td><td style="vertical-align:top;">:</td><td><div><table><tr><td style="font-weight:bold;vertical-align:top;">HTTP_ACCEPT</td><td style="vertical-align:top;">:</td><td><div>text/html,application/xhtml+xml,application/xml;q=0.9,image/webp,*/*;q=0.8</div></td></tr><tr><td style="font-weight:bold;vertical-align:top;">HTTP_ACCEPT_ENCODING</td><td style="vertical-align:top;">:</td><td><div>gzip, deflate, sdch, br</div></td></tr><tr><td style="font-weight:bold;vertical-align:top;">HTTP_ACCEPT_LANGUAGE</td><td style="vertical-align:top;">:</td><td><div>pt-BR,pt;q=0.8,en-US;q=0.6,en;q=0.4</div></td></tr><tr><td style="font-weight:bold;vertical-align:top;">HTTP_CACHE_CONTROL</td><td style="vertical-align:top;">:</td><td><div>max-age=0</div></td></tr><tr><td style="font-weight:bold;vertical-align:top;">HTTP_CONNECTION</td><td style="vertical-align:top;">:</td><td><div>keep-alive</div></td></tr><tr><td style="font-weight:bold;vertical-align:top;">HTTP_COOKIE</td><td style="vertical-align:top;">:</td><td><div>session_id_eventosweb=127.0.0.1-933ecaa7-9106-423c-a12c-96c29c5eae13; session_id_emailgmailapi=127.0.0.1-ac79a545-5915-4a39-80d0-5d4afc169b4e; session_id_heroku_gmail=127.0.0.1-524129bc-83e3-428f-837a-ace350d5108a; session_id_apigmail=127.0.0.1-531ae575-8189-43a1-af0f-16021e1698e4; session_id_ecommerce=127.0.0.1-41a4471e-09eb-4808-af97-efb971086a1f; session_id_eventos_teste=127.0.0.1-318c166f-de46-4ae8-b83b-ee5966d2b16f; session_id_examples=True; session_id_web2clinic=127.0.0.1-bdd63fb7-e434-4208-9b74-b7522ec28531; session_id_myappzero=127.0.0.1-e27568c5-40f2-4f8b-9684-a7e0074a4252; session_id_rsvpservice=127.0.0.1-921e8044-914f-4627-b0f4-97f7be71f42c; session_id_lojadecarro=127.0.0.1-2f08517f-b9c8-4b65-b3c5-bb336ad62ea9; session_id_chamados=127.0.0.1-a7514459-d7fc-4544-b740-71cf2dfd4f38; session_id_website=127.0.0.1-b834c6a1-2b94-451d-ae31-ed29fbfd8f85; session_id_teste_post=127.0.0.1-600f93d0-67a6-409b-837e-9ba769edd2f9; session_id_combo=127.0.0.1-80c5b5fa-0b08-4da0-877c-4cfe75b27ce5; session_id_teste_mysql=127.0.0.1-934c3d59-bd6e-4a18-a966-a87bc691e088; session_id_distancia=127.0.0.1-a3156ed4-2c8e-4f71-b9b5-05b310949e27; session_id_eventos=127.0.0.1-99d5284d-eb7d-48bb-a0bc-54b4642ae270; session_id_utils=127.0.0.1-604d8136-3f0d-4762-8d2e-7ace335cedec; session_id_welcome=127.0.0.1-14c15219-2b39-4674-94c4-18d5a349e9da; session_id_admin=127.0.0.1-cb44291e-cc9f-48a2-8d2f-d7dd3f1a55e9; session_id_api_redtube=127.0.0.1-3109ef89-8198-4eb3-abdc-f121410b7b36</div></td></tr><tr><td style="font-weight:bold;vertical-align:top;">HTTP_HOST</td><td style="vertical-align:top;">:</td><td><div>127.0.0.1:8000</div></td></tr><tr><td style="font-weight:bold;vertical-align:top;">HTTP_REFERER</td><td style="vertical-align:top;">:</td><td><div>http://127.0.0.1:8000/api_redtube/default/redpython?texto=brazilian</div></td></tr><tr><td style="font-weight:bold;vertical-align:top;">HTTP_UPGRADE_INSECURE_REQUESTS</td><td style="vertical-align:top;">:</td><td><div>1</div></td></tr><tr><td style="font-weight:bold;vertical-align:top;">HTTP_USER_AGENT</td><td style="vertical-align:top;">:</td><td><div>Mozilla/5.0 (X11; Linux x86_64) AppleWebKit/537.36 (KHTML, like Gecko) Chrome/54.0.2840.71 Safari/537.36</div></td></tr><tr><td style="font-weight:bold;vertical-align:top;">PATH_INFO</td><td style="vertical-align:top;">:</td><td><div>/api_redtube/default/redpython</div></td></tr><tr><td style="font-weight:bold;vertical-align:top;">QUERY_STRING</td><td style="vertical-align:top;">:</td><td><div>texto=brazilian</div></td></tr><tr><td style="font-weight:bold;vertical-align:top;">REMOTE_ADDR</td><td style="vertical-align:top;">:</td><td><div>127.0.0.1</div></td></tr><tr><td style="font-weight:bold;vertical-align:top;">REMOTE_PORT</td><td style="vertical-align:top;">:</td><td><div>55162</div></td></tr><tr><td style="font-weight:bold;vertical-align:top;">REQUEST_METHOD</td><td style="vertical-align:top;">:</td><td><div>GET</div></td></tr><tr><td style="font-weight:bold;vertical-align:top;">SCRIPT_NAME</td><td style="vertical-align:top;">:</td><td><div></div></td></tr><tr><td style="font-weight:bold;vertical-align:top;">SERVER_NAME</td><td style="vertical-align:top;">:</td><td><div>amauri-note</div></td></tr><tr><td style="font-weight:bold;vertical-align:top;">SERVER_PORT</td><td style="vertical-align:top;">:</td><td><div>8000</div></td></tr><tr><td style="font-weight:bold;vertical-align:top;">SERVER_PROTOCOL</td><td style="vertical-align:top;">:</td><td><div>HTTP/1.1</div></td></tr><tr><td style="font-weight:bold;vertical-align:top;">SERVER_SOFTWARE</td><td style="vertical-align:top;">:</td><td><div>Rocket 1.2.6</div></td></tr><tr><td style="font-weight:bold;vertical-align:top;">app_folders</td><td style="vertical-align:top;">:</td><td><div>set([&#x27;/home/amauri/web2py/applications/api_redtube/&#x27;, &#x27;/home/amauri/web2py/applications/admin/&#x27;, &#x27;/home/amauri/web2py/applications/welcome/&#x27;])</div></td></tr><tr><td style="font-weight:bold;vertical-align:top;">applications_parent</td><td style="vertical-align:top;">:</td><td><div>/home/amauri/web2py</div></td></tr><tr><td style="font-weight:bold;vertical-align:top;">cmd_args</td><td style="vertical-align:top;">:</td><td><div><table></table></div></td></tr><tr><td style="font-weight:bold;vertical-align:top;">cmd_options</td><td style="vertical-align:top;">:</td><td><div>&lt;Values at 0x7f5ee2e57878: {&#x27;verbose&#x27;: False, &#x27;ip&#x27;: &#x27;127.0.0.1&#x27;, &#x27;debuglevel&#x27;: 30, &#x27;with_scheduler&#x27;: False, &#x27;shutdown_timeout&#x27;: 5, &#x27;taskbar&#x27;: False, &#x27;with_coverage&#x27;: False, &#x27;pid_filename&#x27;: &#x27;httpserver.pid&#x27;, &#x27;maxthreads&#x27;: None, &#x27;softcron&#x27;: False, &#x27;server_name&#x27;: &#x27;amauri-note&#x27;, &#x27;bpython&#x27;: False, &#x27;nogui&#x27;: False, &#x27;port&#x27;: 8000, &#x27;print_errors&#x27;: False, &#x27;extcron&#x27;: False, &#x27;runcron&#x27;: False, &#x27;run_system_tests&#x27;: False, &#x27;test&#x27;: None, &#x27;folder&#x27;: &#x27;/home/amauri/web2py&#x27;, &#x27;config&#x27;: &#x27;&#x27;, &#x27;minthreads&#x27;: None, &#x27;shell&#x27;: None, &#x27;run&#x27;: &#x27;&#x27;, &#x27;log_filename&#x27;: &#x27;httpserver.log&#x27;, &#x27;profiler_dir&#x27;: None, &#x27;args&#x27;: [&#x27;&#x27;], &#x27;socket_timeout&#x27;: 5, &#x27;ssl_ca_certificate&#x27;: None, &#x27;scheduler&#x27;: None, &#x27;interfaces&#x27;: None, &#x27;ssl_private_key&#x27;: &#x27;&#x27;, &#x27;gae&#x27;: None, &#x27;password&#x27;: &#x27;******&#x27;, &#x27;request_queue_size&#x27;: 5, &#x27;ssl_certificate&#x27;: &#x27;&#x27;, &#x27;cronjob&#x27;: False, &#x27;numthreads&#x27;: None, &#x27;quiet&#x27;: False, &#x27;import_models&#x27;: False, &#x27;timeout&#x27;: 10, &#x27;plain&#x27;: False, &#x27;nobanner&#x27;: False}&gt;</div></td></tr><tr><td style="font-weight:bold;vertical-align:top;">db_sessions</td><td style="vertical-align:top;">:</td><td><div>set([])</div></td></tr><tr><td style="font-weight:bold;vertical-align:top;">debugging</td><td style="vertical-align:top;">:</td><td><div>False</div></td></tr><tr><td style="font-weight:bold;vertical-align:top;">gluon_parent</td><td style="vertical-align:top;">:</td><td><div>/home/amauri/web2py</div></td></tr><tr><td style="font-weight:bold;vertical-align:top;">http_accept</td><td style="vertical-align:top;">:</td><td><div>text/html,application/xhtml+xml,application/xml;q=0.9,image/webp,*/*;q=0.8</div></td></tr><tr><td style="font-weight:bold;vertical-align:top;">http_accept_encoding</td><td style="vertical-align:top;">:</td><td><div>gzip, deflate, sdch, br</div></td></tr><tr><td style="font-weight:bold;vertical-align:top;">http_accept_language</td><td style="vertical-align:top;">:</td><td><div>pt-BR,pt;q=0.8,en-US;q=0.6,en;q=0.4</div></td></tr><tr><td style="font-weight:bold;vertical-align:top;">http_cache_control</td><td style="vertical-align:top;">:</td><td><div>max-age=0</div></td></tr><tr><td style="font-weight:bold;vertical-align:top;">http_connection</td><td style="vertical-align:top;">:</td><td><div>keep-alive</div></td></tr><tr><td style="font-weight:bold;vertical-align:top;">http_cookie</td><td style="vertical-align:top;">:</td><td><div>session_id_eventosweb=127.0.0.1-933ecaa7-9106-423c-a12c-96c29c5eae13; session_id_emailgmailapi=127.0.0.1-ac79a545-5915-4a39-80d0-5d4afc169b4e; session_id_heroku_gmail=127.0.0.1-524129bc-83e3-428f-837a-ace350d5108a; session_id_apigmail=127.0.0.1-531ae575-8189-43a1-af0f-16021e1698e4; session_id_ecommerce=127.0.0.1-41a4471e-09eb-4808-af97-efb971086a1f; session_id_eventos_teste=127.0.0.1-318c166f-de46-4ae8-b83b-ee5966d2b16f; session_id_examples=True; session_id_web2clinic=127.0.0.1-bdd63fb7-e434-4208-9b74-b7522ec28531; session_id_myappzero=127.0.0.1-e27568c5-40f2-4f8b-9684-a7e0074a4252; session_id_rsvpservice=127.0.0.1-921e8044-914f-4627-b0f4-97f7be71f42c; session_id_lojadecarro=127.0.0.1-2f08517f-b9c8-4b65-b3c5-bb336ad62ea9; session_id_chamados=127.0.0.1-a7514459-d7fc-4544-b740-71cf2dfd4f38; session_id_website=127.0.0.1-b834c6a1-2b94-451d-ae31-ed29fbfd8f85; session_id_teste_post=127.0.0.1-600f93d0-67a6-409b-837e-9ba769edd2f9; session_id_combo=127.0.0.1-80c5b5fa-0b08-4da0-877c-4cfe75b27ce5; session_id_teste_mysql=127.0.0.1-934c3d59-bd6e-4a18-a966-a87bc691e088; session_id_distancia=127.0.0.1-a3156ed4-2c8e-4f71-b9b5-05b310949e27; session_id_eventos=127.0.0.1-99d5284d-eb7d-48bb-a0bc-54b4642ae270; session_id_utils=127.0.0.1-604d8136-3f0d-4762-8d2e-7ace335cedec; session_id_welcome=127.0.0.1-14c15219-2b39-4674-94c4-18d5a349e9da; session_id_admin=127.0.0.1-cb44291e-cc9f-48a2-8d2f-d7dd3f1a55e9; session_id_api_redtube=127.0.0.1-3109ef89-8198-4eb3-abdc-f121410b7b36</div></td></tr><tr><td style="font-weight:bold;vertical-align:top;">http_host</td><td style="vertical-align:top;">:</td><td><div>127.0.0.1:8000</div></td></tr><tr><td style="font-weight:bold;vertical-align:top;">http_referer</td><td style="vertical-align:top;">:</td><td><div>http://127.0.0.1:8000/api_redtube/default/redpython?texto=brazilian</div></td></tr><tr><td style="font-weight:bold;vertical-align:top;">http_upgrade_insecure_requests</td><td style="vertical-align:top;">:</td><td><div>1</div></td></tr><tr><td style="font-weight:bold;vertical-align:top;">http_user_agent</td><td style="vertical-align:top;">:</td><td><div>Mozilla/5.0 (X11; Linux x86_64) AppleWebKit/537.36 (KHTML, like Gecko) Chrome/54.0.2840.71 Safari/537.36</div></td></tr><tr><td style="font-weight:bold;vertical-align:top;">is_jython</td><td style="vertical-align:top;">:</td><td><div>False</div></td></tr><tr><td style="font-weight:bold;vertical-align:top;">is_pypy</td><td style="vertical-align:top;">:</td><td><div>False</div></td></tr><tr><td style="font-weight:bold;vertical-align:top;">is_source</td><td style="vertical-align:top;">:</td><td><div>True</div></td></tr><tr><td style="font-weight:bold;vertical-align:top;">local_hosts</td><td style="vertical-align:top;">:</td><td><div><table><tr><td><div>127.0.1.1</div></td></tr><tr><td><div>::1</div></td></tr><tr><td><div>amauri-note</div></td></tr><tr><td><div>::ffff:127.0.0.1</div></td></tr><tr><td><div>127.0.0.1</div></td></tr></table></div></td></tr><tr><td style="font-weight:bold;vertical-align:top;">path_info</td><td style="vertical-align:top;">:</td><td><div>/api_redtube/default/redpython</div></td></tr><tr><td style="font-weight:bold;vertical-align:top;">query_string</td><td style="vertical-align:top;">:</td><td><div>texto=brazilian</div></td></tr><tr><td style="font-weight:bold;vertical-align:top;">remote_addr</td><td style="vertical-align:top;">:</td><td><div>127.0.0.1</div></td></tr><tr><td style="font-weight:bold;vertical-align:top;">remote_port</td><td style="vertical-align:top;">:</td><td><div>55162</div></td></tr><tr><td style="font-weight:bold;vertical-align:top;">request_method</td><td style="vertical-align:top;">:</td><td><div>GET</div></td></tr><tr><td style="font-weight:bold;vertical-align:top;">request_uri</td><td style="vertical-align:top;">:</td><td><div>/api_redtube/default/redpython?texto=brazilian</div></td></tr><tr><td style="font-weight:bold;vertical-align:top;">script_name</td><td style="vertical-align:top;">:</td><td><div></div></td></tr><tr><td style="font-weight:bold;vertical-align:top;">server_name</td><td style="vertical-align:top;">:</td><td><div>amauri-note</div></td></tr><tr><td style="font-weight:bold;vertical-align:top;">server_port</td><td style="vertical-align:top;">:</td><td><div>8000</div></td></tr><tr><td style="font-weight:bold;vertical-align:top;">server_protocol</td><td style="vertical-align:top;">:</td><td><div>HTTP/1.1</div></td></tr><tr><td style="font-weight:bold;vertical-align:top;">server_software</td><td style="vertical-align:top;">:</td><td><div>Rocket 1.2.6</div></td></tr><tr><td style="font-weight:bold;vertical-align:top;">web2py_path</td><td style="vertical-align:top;">:</td><td><div>/home/amauri/web2py</div></td></tr><tr><td style="font-weight:bold;vertical-align:top;">web2py_version</td><td style="vertical-align:top;">:</td><td><div>2.14.6-stable+timestamp.2016.05.10.00.21.47</div></td></tr><tr><td style="font-weight:bold;vertical-align:top;">wsgi.errors</td><td style="vertical-align:top;">:</td><td><div>&lt;open file &#x27;&lt;stderr&gt;&#x27;, mode &#x27;w&#x27; at 0x7f5eee8131e0&gt;</div></td></tr><tr><td style="font-weight:bold;vertical-align:top;">wsgi.file_wrapper</td><td style="vertical-align:top;">:</td><td><div>&lt;class wsgiref.util.FileWrapper at 0x7f5ee2e8d0b8&gt;</div></td></tr><tr><td style="font-weight:bold;vertical-align:top;">wsgi.input</td><td style="vertical-align:top;">:</td><td><div>&lt;socket._fileobject object at 0x7f5eaa2d6850&gt;</div></td></tr><tr><td style="font-weight:bold;vertical-align:top;">wsgi.multiprocess</td><td style="vertical-align:top;">:</td><td><div>False</div></td></tr><tr><td style="font-weight:bold;vertical-align:top;">wsgi.multithread</td><td style="vertical-align:top;">:</td><td><div>True</div></td></tr><tr><td style="font-weight:bold;vertical-align:top;">wsgi.run_once</td><td style="vertical-align:top;">:</td><td><div>False</div></td></tr><tr><td style="font-weight:bold;vertical-align:top;">wsgi.url_scheme</td><td style="vertical-align:top;">:</td><td><div>http</div></td></tr><tr><td style="font-weight:bold;vertical-align:top;">wsgi.version</td><td style="vertical-align:top;">:</td><td><div><table><tr><td><div>1</div></td></tr><tr><td><div>0</div></td></tr></table></div></td></tr><tr><td style="font-weight:bold;vertical-align:top;">wsgi_errors</td><td style="vertical-align:top;">:</td><td><div>&lt;open file &#x27;&lt;stderr&gt;&#x27;, mode &#x27;w&#x27; at 0x7f5eee8131e0&gt;</div></td></tr><tr><td style="font-weight:bold;vertical-align:top;">wsgi_file_wrapper</td><td style="vertical-align:top;">:</td><td><div>&lt;class wsgiref.util.FileWrapper at 0x7f5ee2e8d0b8&gt;</div></td></tr><tr><td style="font-weight:bold;vertical-align:top;">wsgi_input</td><td style="vertical-align:top;">:</td><td><div>&lt;socket._fileobject object at 0x7f5eaa2d6850&gt;</div></td></tr><tr><td style="font-weight:bold;vertical-align:top;">wsgi_multiprocess</td><td style="vertical-align:top;">:</td><td><div>False</div></td></tr><tr><td style="font-weight:bold;vertical-align:top;">wsgi_multithread</td><td style="vertical-align:top;">:</td><td><div>True</div></td></tr><tr><td style="font-weight:bold;vertical-align:top;">wsgi_run_once</td><td style="vertical-align:top;">:</td><td><div>False</div></td></tr><tr><td style="font-weight:bold;vertical-align:top;">wsgi_url_scheme</td><td style="vertical-align:top;">:</td><td><div>http</div></td></tr><tr><td style="font-weight:bold;vertical-align:top;">wsgi_version</td><td style="vertical-align:top;">:</td><td><div><table><tr><td><div>1</div></td></tr><tr><td><div>0</div></td></tr></table></div></td></tr></table></div></td></tr><tr><td style="font-weight:bold;vertical-align:top;">extension</td><td style="vertical-align:top;">:</td><td><div>html</div></td></tr><tr><td style="font-weight:bold;vertical-align:top;">folder</td><td style="vertical-align:top;">:</td><td><div>/home/amauri/web2py/applications/api_redtube/</div></td></tr><tr><td style="font-weight:bold;vertical-align:top;">function</td><td style="vertical-align:top;">:</td><td><div>redpython</div></td></tr><tr><td style="font-weight:bold;vertical-align:top;">global_settings</td><td style="vertical-align:top;">:</td><td><div><table><tr><td style="font-weight:bold;vertical-align:top;">app_folders</td><td style="vertical-align:top;">:</td><td><div>set([&#x27;/home/amauri/web2py/applications/api_redtube/&#x27;, &#x27;/home/amauri/web2py/applications/admin/&#x27;, &#x27;/home/amauri/web2py/applications/welcome/&#x27;])</div></td></tr><tr><td style="font-weight:bold;vertical-align:top;">applications_parent</td><td style="vertical-align:top;">:</td><td><div>/home/amauri/web2py</div></td></tr><tr><td style="font-weight:bold;vertical-align:top;">cmd_args</td><td style="vertical-align:top;">:</td><td><div><table></table></div></td></tr><tr><td style="font-weight:bold;vertical-align:top;">cmd_options</td><td style="vertical-align:top;">:</td><td><div>&lt;Values at 0x7f5ee2e57878: {&#x27;verbose&#x27;: False, &#x27;ip&#x27;: &#x27;127.0.0.1&#x27;, &#x27;debuglevel&#x27;: 30, &#x27;with_scheduler&#x27;: False, &#x27;shutdown_timeout&#x27;: 5, &#x27;taskbar&#x27;: False, &#x27;with_coverage&#x27;: False, &#x27;pid_filename&#x27;: &#x27;httpserver.pid&#x27;, &#x27;maxthreads&#x27;: None, &#x27;softcron&#x27;: False, &#x27;server_name&#x27;: &#x27;amauri-note&#x27;, &#x27;bpython&#x27;: False, &#x27;nogui&#x27;: False, &#x27;port&#x27;: 8000, &#x27;print_errors&#x27;: False, &#x27;extcron&#x27;: False, &#x27;runcron&#x27;: False, &#x27;run_system_tests&#x27;: False, &#x27;test&#x27;: None, &#x27;folder&#x27;: &#x27;/home/amauri/web2py&#x27;, &#x27;config&#x27;: &#x27;&#x27;, &#x27;minthreads&#x27;: None, &#x27;shell&#x27;: None, &#x27;run&#x27;: &#x27;&#x27;, &#x27;log_filename&#x27;: &#x27;httpserver.log&#x27;, &#x27;profiler_dir&#x27;: None, &#x27;args&#x27;: [&#x27;&#x27;], &#x27;socket_timeout&#x27;: 5, &#x27;ssl_ca_certificate&#x27;: None, &#x27;scheduler&#x27;: None, &#x27;interfaces&#x27;: None, &#x27;ssl_private_key&#x27;: &#x27;&#x27;, &#x27;gae&#x27;: None, &#x27;password&#x27;: &#x27;******&#x27;, &#x27;request_queue_size&#x27;: 5, &#x27;ssl_certificate&#x27;: &#x27;&#x27;, &#x27;cronjob&#x27;: False, &#x27;numthreads&#x27;: None, &#x27;quiet&#x27;: False, &#x27;import_models&#x27;: False, &#x27;timeout&#x27;: 10, &#x27;plain&#x27;: False, &#x27;nobanner&#x27;: False}&gt;</div></td></tr><tr><td style="font-weight:bold;vertical-align:top;">db_sessions</td><td style="vertical-align:top;">:</td><td><div>set([])</div></td></tr><tr><td style="font-weight:bold;vertical-align:top;">debugging</td><td style="vertical-align:top;">:</td><td><div>False</div></td></tr><tr><td style="font-weight:bold;vertical-align:top;">gluon_parent</td><td style="vertical-align:top;">:</td><td><div>/home/amauri/web2py</div></td></tr><tr><td style="font-weight:bold;vertical-align:top;">is_jython</td><td style="vertical-align:top;">:</td><td><div>False</div></td></tr><tr><td style="font-weight:bold;vertical-align:top;">is_pypy</td><td style="vertical-align:top;">:</td><td><div>False</div></td></tr><tr><td style="font-weight:bold;vertical-align:top;">is_source</td><td style="vertical-align:top;">:</td><td><div>True</div></td></tr><tr><td style="font-weight:bold;vertical-align:top;">local_hosts</td><td style="vertical-align:top;">:</td><td><div><table><tr><td><div>127.0.1.1</div></td></tr><tr><td><div>::1</div></td></tr><tr><td><div>amauri-note</div></td></tr><tr><td><div>::ffff:127.0.0.1</div></td></tr><tr><td><div>127.0.0.1</div></td></tr></table></div></td></tr><tr><td style="font-weight:bold;vertical-align:top;">web2py_version</td><td style="vertical-align:top;">:</td><td><div>2.14.6-stable+timestamp.2016.05.10.00.21.47</div></td></tr></table></div></td></tr><tr><td style="font-weight:bold;vertical-align:top;">is_https</td><td style="vertical-align:top;">:</td><td><div>False</div></td></tr><tr><td style="font-weight:bold;vertical-align:top;">is_local</td><td style="vertical-align:top;">:</td><td><div>True</div></td></tr><tr><td style="font-weight:bold;vertical-align:top;">is_restful</td><td style="vertical-align:top;">:</td><td><div>False</div></td></tr><tr><td style="font-weight:bold;vertical-align:top;">is_scheduler</td><td style="vertical-align:top;">:</td><td><div>False</div></td></tr><tr><td style="font-weight:bold;vertical-align:top;">is_shell</td><td style="vertical-align:top;">:</td><td><div>False</div></td></tr><tr><td style="font-weight:bold;vertical-align:top;">now</td><td style="vertical-align:top;">:</td><td><div>datetime.datetime(2016, 11, 1, 9, 34, 59, 332817)</div></td></tr><tr><td style="font-weight:bold;vertical-align:top;">raw_args</td><td style="vertical-align:top;">:</td><td><div></div></td></tr><tr><td style="font-weight:bold;vertical-align:top;">raw_extension</td><td style="vertical-align:top;">:</td><td><div>None</div></td></tr><tr><td style="font-weight:bold;vertical-align:top;">url</td><td style="vertical-align:top;">:</td><td><div>/api_redtube/default/redpython</div></td></tr><tr><td style="font-weight:bold;vertical-align:top;">utcnow</td><td style="vertical-align:top;">:</td><td><div>datetime.datetime(2016, 11, 1, 11, 34, 59, 332853)</div></td></tr><tr><td style="font-weight:bold;vertical-align:top;">wsgi</td><td style="vertical-align:top;">:</td><td><div>&lt;gluon.main.LazyWSGI object at 0x7f5eaa275e90&gt;</div></td></tr></table></div>'
tRp58
sS'frames'
p59
(lp60
(dp61
S'file'
p62
S'/home/amauri/web2py/gluon/restricted.py'
p63
sS'dump'
p64
(dp65
S'environment'
p66
S"{'A': <class 'gluon.html.A'>, 'ANY_OF': <class 'gluon.validators.ANY_OF'>, 'ASSIGNJS': <function ASSIGNJS>, 'AppConfig': <function AppConfig>, 'Auth': <class 'gluon.tools.Auth'>, 'B': <class 'gluon.html.B'>, 'BEAUTIFY': <class 'gluon.html.BEAUTIFY'>, 'BODY': <class 'gluon.html.BODY'>, 'BR': <class 'gluon.html.BR'>, 'BUTTON': <class 'gluon.html.BUTTON'>, ...}"
p67
sS'ccode'
p68
S'<code object <module> at 0x7f5eaa073a30, file "/...pi_redtube/views/default/redpython.html", line 1>'
p69
ssS'lnum'
p70
I227
sS'lines'
p71
(dp72
I224
S'            ccode = code'
p73
sI225
S'        else:'
p74
sI226
S'            ccode = compile2(code, layer)'
p75
sI227
S'        exec ccode in environment'
p76
sI228
S'    except HTTP:'
p77
sI229
S'        raise'
p78
sI230
S'    except RestrictedError:'
p79
sI231
S'        # do not encapsulate (obfuscate) the original RestrictedError'
p80
sI222
S'    try:'
p81
sI223
S'        if isinstance(code, types.CodeType):'
p82
ssS'call'
p83
S'(code=r"response.write(\'<!DOCTYPE html>\\n<html>\\n<head>\\...</script>\\n\\t\\n\\n</body>\\n</html>\', escape=False)", environment={\'A\': <class \'gluon.html.A\'>, \'ANY_OF\': <class \'gluon.validators.ANY_OF\'>, \'ASSIGNJS\': <function ASSIGNJS>, \'AppConfig\': <function AppConfig>, \'Auth\': <class \'gluon.tools.Auth\'>, \'B\': <class \'gluon.html.B\'>, \'BEAUTIFY\': <class \'gluon.html.BEAUTIFY\'>, \'BODY\': <class \'gluon.html.BODY\'>, \'BR\': <class \'gluon.html.BR\'>, \'BUTTON\': <class \'gluon.html.BUTTON\'>, ...}, layer=\'/home/amauri/web2py/applications/api_redtube/views/default/redpython.html\')'
p84
sS'func'
p85
S'restricted'
p86
sa(dp87
g62
S'/home/amauri/web2py/applications/api_redtube/views/default/redpython.html'
p88
sg64
(dp89
S'meta'
p90
S'undefined'
p91
sS'charset'
p92
g91
ssg70
I4
sg71
(dp93
I1
S'response.write(\'<!DOCTYPE html>\\n<html>\\n<head>\\n\\t<meta charset="utf-8">\\n\\t<meta http-equiv="X-UA-Compatible" content="IE=edge">\\n\\t<title>\', escape=False)'
p94
sI2
S"response.write(response.title or '')"
p95
sI3
S'response.write(\'</title>\\n\\t<!-- Latest compiled and minified CSS -->\\n<link rel="stylesheet" href="https://maxcdn.bootstrapcdn.com/bootstrap/3.3.7/css/bootstrap.min.css" integrity="sha384-BVYiiSIFeK1dGmJRAkycuHAHRg32OmUcww7on3RYdg4Va+PmSTsz/K68vbdEjh4u" crossorigin="anonymous">\\n\\t<style>\\n\\t.txt-video{\\n\\twhite-space: nowrap;\\n\\twidth: 100%;\\n\\toverflow: hidden;\\n\\ttext-overflow: ellipsis;\\n\\t}\\n\\t.img-video{\\n\\twidth: 100%;\\n\\tcursor: pointer;\\n\\t}\\n\\t</style>\\n</head>\\n<body>\\n<div class="container-fluid">\\n\\t<div class="jumbotron">\\n\\t  <div class="container">\\n\\t    <h2>V\\xc3\\xaddeos</h2>\\n\\t    <div class="row">\\n\\t\\t  <div class="col-lg-6">\\n\\t\\t  \\t<form action="">\\n\\t\\t\\t    <div class="input-group">\\n\\t\\t\\t      <input name="texto" type="text" class="form-control" placeholder="Search for..." autofocus>\\n\\t\\t\\t      <span class="input-group-btn">\\n\\t\\t\\t        <button class="btn btn-default btn-primary" type="submit">Go!</button>\\n\\t\\t\\t      </span>\\n\\t\\t\\t    </div><!-- /input-group -->\\n\\t\\t    </form>\\n\\t\\t  </div><!-- /.col-lg-6 -->\\n\\t\\t</div><!-- /.row -->\\n\\t\\t  </div>\\n\\t</div>\\n\\n\\t<div class="modal fade" tabindex="-1" role="dialog">\\n\\t  <div class="modal-dialog" role="document">\\n\\t    <div class="modal-content">\\n\\t      <div class="modal-header">\\n\\t        <button type="button" class="close" data-dismiss="modal" aria-label="Close"><span aria-hidden="true">&times;</span></button>\\n\\t        <h4 class="modal-title">\', escape=False)'
p96
sI4
S"response.write(item['title'])"
p97
sI5
S'response.write(\'</h4>\\n\\t      </div>\\n\\t      <div class="modal-body">\\n\\t        <p>Dura\\xc3\\xa7\\xc3\\xa3o: \', escape=False)'
p98
sI6
S"response.write(item['duration'])"
p99
sI7
S'response.write(\'&hellip;</p>\\n\\t      </div>\\n\\t      <div class="modal-footer">\\n\\t        \\n\\t      </div>\\n\\t    </div><!-- /.modal-content -->\\n\\t  </div><!-- /.modal-dialog -->\\n\\t</div><!-- /.modal -->\\n\\n\\t<h4>\', escape=False)'
p100
sI8
S'response.write(qtde)'
p101
sI9
S'response.write(\'</h4>\\n\\t\\t\\t<div class="row">\\n\\t\\t\\t\\t\', escape=False)'
p102
sI10
S'for item in lista:'
p103
sI11
S'    response.write(\'\\n\\t\\t\\t\\t  <div class="col-sm-6 col-md-3">\\n\\t\\t\\t\\t    <div class="thumbnail" style="height:350px">\\n\\t\\t\\t\\t      <div class="caption">\\n\\t\\t\\t\\t        <h4>\', escape=False)'
p104
sI12
S"    response.write(item['title'])"
p105
sI13
S'    response.write(\'</h4>\\n\\t\\t\\t\\t        <p class="txt-video">Dura\\xc3\\xa7\\xc3\\xa3o: \', escape=False)'
p106
sI14
S"    response.write(item['duration'])"
p107
ssg83
S'()'
p108
sg85
S'<module>'
p109
sasS'pyver'
p110
S'Python 2.7.12: /usr/bin/python (prefix: /usr)'
p111
sS'session'
p112
g57
(S's\x1a\x00\x00\x00<div><table></table></div>'
tRp113
sS'etype'
p114
S"<type 'exceptions.NameError'>"
p115
sS'date'
p116
S'Tue Nov  1 09:35:00 2016'
p117
sS'response'
p118
g57
(S's\xd3>\x00\x00<div><table><tr><td style="font-weight:bold;vertical-align:top;">body</td><td style="vertical-align:top;">:</td><td><div>&lt;cStringIO.StringO object at 0x7f5ea9f87a40&gt;</div></td></tr><tr><td style="font-weight:bold;vertical-align:top;">cookies</td><td style="vertical-align:top;">:</td><td><div><table><tr><td style="font-weight:bold;vertical-align:top;">session_id_api_redtube</td><td style="vertical-align:top;">:</td><td><div>127.0.0.1-09c92805-beae-4341-a43e-be2f8f77a31e<table><tr><td style="font-weight:bold;vertical-align:top;">comment</td><td style="vertical-align:top;">:</td><td><div></div></td></tr><tr><td style="font-weight:bold;vertical-align:top;">domain</td><td style="vertical-align:top;">:</td><td><div></div></td></tr><tr><td style="font-weight:bold;vertical-align:top;">expires</td><td style="vertical-align:top;">:</td><td><div></div></td></tr><tr><td style="font-weight:bold;vertical-align:top;">httponly</td><td style="vertical-align:top;">:</td><td><div></div></td></tr><tr><td style="font-weight:bold;vertical-align:top;">max-age</td><td style="vertical-align:top;">:</td><td><div></div></td></tr><tr><td style="font-weight:bold;vertical-align:top;">path</td><td style="vertical-align:top;">:</td><td><div>/</div></td></tr><tr><td style="font-weight:bold;vertical-align:top;">secure</td><td style="vertical-align:top;">:</td><td><div></div></td></tr><tr><td style="font-weight:bold;vertical-align:top;">version</td><td style="vertical-align:top;">:</td><td><div></div></td></tr></table></div></td></tr></table></div></td></tr><tr><td style="font-weight:bold;vertical-align:top;">delimiters</td><td style="vertical-align:top;">:</td><td><div><table><tr><td><div>{{</div></td></tr><tr><td><div>}}</div></td></tr></table></div></td></tr><tr><td style="font-weight:bold;vertical-align:top;">files</td><td style="vertical-align:top;">:</td><td><div><table></table></div></td></tr><tr><td style="font-weight:bold;vertical-align:top;">flash</td><td style="vertical-align:top;">:</td><td><div></div></td></tr><tr><td style="font-weight:bold;vertical-align:top;">form_label_separator</td><td style="vertical-align:top;">:</td><td><div></div></td></tr><tr><td style="font-weight:bold;vertical-align:top;">formstyle</td><td style="vertical-align:top;">:</td><td><div>bootstrap3_inline</div></td></tr><tr><td style="font-weight:bold;vertical-align:top;">generic_patterns</td><td style="vertical-align:top;">:</td><td><div><table><tr><td><div>*</div></td></tr></table></div></td></tr><tr><td style="font-weight:bold;vertical-align:top;">google_analytics_id</td><td style="vertical-align:top;">:</td><td><div>None</div></td></tr><tr><td style="font-weight:bold;vertical-align:top;">headers</td><td style="vertical-align:top;">:</td><td><div><table><tr><td style="font-weight:bold;vertical-align:top;">X-Powered-By</td><td style="vertical-align:top;">:</td><td><div>web2py</div></td></tr></table></div></td></tr><tr><td style="font-weight:bold;vertical-align:top;">logo</td><td style="vertical-align:top;">:</td><td><div><a class="navbar-brand" href="http://www.web2py.com/" id="web2py-logo"><b>web<span>2</span>py</b>&trade;&nbsp;</a></div></td></tr><tr><td style="font-weight:bold;vertical-align:top;">menu</td><td style="vertical-align:top;">:</td><td><div><table><tr><td><div><table><tr><td><div>Principal</div></td></tr><tr><td><div>False</div></td></tr><tr><td><div>/api_redtube/default/index</div></td></tr><tr><td><div><table></table></div></td></tr></table></div></td></tr><tr><td><div><table><tr><td><div>Meus sites</div></td></tr><tr><td><div>False</div></td></tr><tr><td><div>/admin/default/site</div></td></tr></table></div></td></tr><tr><td><div><table><tr><td><div>Esta aplica\xc3\xa7\xc3\xa3o</div></td></tr><tr><td><div>False</div></td></tr><tr><td><div>#</div></td></tr><tr><td><div><table><tr><td><div><table><tr><td><div>Design</div></td></tr><tr><td><div>False</div></td></tr><tr><td><div>/admin/default/design/api_redtube</div></td></tr></table></div></td></tr><tr><td><div><li class="divider"></li></div></td></tr><tr><td><div><table><tr><td><div>Controlador</div></td></tr><tr><td><div>False</div></td></tr><tr><td><div>/admin/default/edit/api_redtube/controllers/default.py</div></td></tr></table></div></td></tr><tr><td><div><table><tr><td><div>Visualiza\xc3\xa7\xc3\xa3o</div></td></tr><tr><td><div>False</div></td></tr><tr><td><div>/admin/default/edit/api_redtube/views/default/redpython.html</div></td></tr></table></div></td></tr><tr><td><div><table><tr><td><div>Modelo BD</div></td></tr><tr><td><div>False</div></td></tr><tr><td><div>/admin/default/edit/api_redtube/models/db.py</div></td></tr></table></div></td></tr><tr><td><div><table><tr><td><div>Modelo de Menu</div></td></tr><tr><td><div>False</div></td></tr><tr><td><div>/admin/default/edit/api_redtube/models/menu.py</div></td></tr></table></div></td></tr><tr><td><div><table><tr><td><div>Config.ini</div></td></tr><tr><td><div>False</div></td></tr><tr><td><div>/admin/default/edit/api_redtube/private/appconfig.ini</div></td></tr></table></div></td></tr><tr><td><div><table><tr><td><div>Layout</div></td></tr><tr><td><div>False</div></td></tr><tr><td><div>/admin/default/edit/api_redtube/views/layout.html</div></td></tr></table></div></td></tr><tr><td><div><table><tr><td><div>Folha de estilo</div></td></tr><tr><td><div>False</div></td></tr><tr><td><div>/admin/default/edit/api_redtube/static/css/web2py-bootstrap3.css</div></td></tr></table></div></td></tr><tr><td><div><table><tr><td><div>banco de dados</div></td></tr><tr><td><div>False</div></td></tr><tr><td><div>/api_redtube/appadmin/index</div></td></tr></table></div></td></tr><tr><td><div><table><tr><td><div>Erros</div></td></tr><tr><td><div>False</div></td></tr><tr><td><div>/admin/default/errors/api_redtube</div></td></tr></table></div></td></tr><tr><td><div><table><tr><td><div>Sobre</div></td></tr><tr><td><div>False</div></td></tr><tr><td><div>/admin/default/about/api_redtube</div></td></tr></table></div></td></tr></table></div></td></tr></table></div></td></tr><tr><td><div><table><tr><td><div>web2py.com</div></td></tr><tr><td><div>False</div></td></tr><tr><td><div>#</div></td></tr><tr><td><div><table><tr><td><div><table><tr><td><div>Download</div></td></tr><tr><td><div>False</div></td></tr><tr><td><div>http://www.web2py.com/examples/default/download</div></td></tr></table></div></td></tr><tr><td><div><table><tr><td><div>Suporte</div></td></tr><tr><td><div>False</div></td></tr><tr><td><div>http://www.web2py.com/examples/default/support</div></td></tr></table></div></td></tr><tr><td><div><table><tr><td><div>Demo</div></td></tr><tr><td><div>False</div></td></tr><tr><td><div>http://web2py.com/demo_admin</div></td></tr></table></div></td></tr><tr><td><div><table><tr><td><div>Exemplos r\xc3\xa1pidos</div></td></tr><tr><td><div>False</div></td></tr><tr><td><div>http://web2py.com/examples/default/examples</div></td></tr></table></div></td></tr><tr><td><div><table><tr><td><div>Perguntas frequentes</div></td></tr><tr><td><div>False</div></td></tr><tr><td><div>http://web2py.com/AlterEgo</div></td></tr></table></div></td></tr><tr><td><div><table><tr><td><div>V\xc3\xaddeos</div></td></tr><tr><td><div>False</div></td></tr><tr><td><div>http://www.web2py.com/examples/default/videos/</div></td></tr></table></div></td></tr><tr><td><div><table><tr><td><div>Aplica\xc3\xa7\xc3\xb5es gratuitas</div></td></tr><tr><td><div>False</div></td></tr><tr><td><div>http://web2py.com/appliances</div></td></tr></table></div></td></tr><tr><td><div><table><tr><td><div>Plugins</div></td></tr><tr><td><div>False</div></td></tr><tr><td><div>http://web2py.com/plugins</div></td></tr></table></div></td></tr><tr><td><div><table><tr><td><div>Receitas</div></td></tr><tr><td><div>False</div></td></tr><tr><td><div>http://web2pyslices.com/</div></td></tr></table></div></td></tr></table></div></td></tr></table></div></td></tr><tr><td><div><table><tr><td><div>Documenta\xc3\xa7\xc3\xa3o</div></td></tr><tr><td><div>False</div></td></tr><tr><td><div>#</div></td></tr><tr><td><div><table><tr><td><div><table><tr><td><div>Online book</div></td></tr><tr><td><div>False</div></td></tr><tr><td><div>http://www.web2py.com/book</div></td></tr></table></div></td></tr><tr><td><div><li class="divider"></li></div></td></tr><tr><td><div><table><tr><td><div>Pref\xc3\xa1cio</div></td></tr><tr><td><div>False</div></td></tr><tr><td><div>http://www.web2py.com/book/default/chapter/00</div></td></tr></table></div></td></tr><tr><td><div><table><tr><td><div>Introdu\xc3\xa7\xc3\xa3o</div></td></tr><tr><td><div>False</div></td></tr><tr><td><div>http://www.web2py.com/book/default/chapter/01</div></td></tr></table></div></td></tr><tr><td><div><table><tr><td><div>Python</div></td></tr><tr><td><div>False</div></td></tr><tr><td><div>http://www.web2py.com/book/default/chapter/02</div></td></tr></table></div></td></tr><tr><td><div><table><tr><td><div>Vis\xc3\xa3o Geral</div></td></tr><tr><td><div>False</div></td></tr><tr><td><div>http://www.web2py.com/book/default/chapter/03</div></td></tr></table></div></td></tr><tr><td><div><table><tr><td><div>The Core</div></td></tr><tr><td><div>False</div></td></tr><tr><td><div>http://www.web2py.com/book/default/chapter/04</div></td></tr></table></div></td></tr><tr><td><div><table><tr><td><div>As views</div></td></tr><tr><td><div>False</div></td></tr><tr><td><div>http://www.web2py.com/book/default/chapter/05</div></td></tr></table></div></td></tr><tr><td><div><table><tr><td><div>banco de dados</div></td></tr><tr><td><div>False</div></td></tr><tr><td><div>http://www.web2py.com/book/default/chapter/06</div></td></tr></table></div></td></tr><tr><td><div><table><tr><td><div>Formul\xc3\xa1rios e Validadores</div></td></tr><tr><td><div>False</div></td></tr><tr><td><div>http://www.web2py.com/book/default/chapter/07</div></td></tr></table></div></td></tr><tr><td><div><table><tr><td><div>Email e SMS</div></td></tr><tr><td><div>False</div></td></tr><tr><td><div>http://www.web2py.com/book/default/chapter/08</div></td></tr></table></div></td></tr><tr><td><div><table><tr><td><div>Controle de Acesso</div></td></tr><tr><td><div>False</div></td></tr><tr><td><div>http://www.web2py.com/book/default/chapter/09</div></td></tr></table></div></td></tr><tr><td><div><table><tr><td><div>Servi\xc3\xa7o</div></td></tr><tr><td><div>False</div></td></tr><tr><td><div>http://www.web2py.com/book/default/chapter/10</div></td></tr></table></div></td></tr><tr><td><div><table><tr><td><div>Receitas de Ajax</div></td></tr><tr><td><div>False</div></td></tr><tr><td><div>http://www.web2py.com/book/default/chapter/11</div></td></tr></table></div></td></tr><tr><td><div><table><tr><td><div>Componentes e Plugins</div></td></tr><tr><td><div>False</div></td></tr><tr><td><div>http://www.web2py.com/book/default/chapter/12</div></td></tr></table></div></td></tr><tr><td><div><table><tr><td><div>Receitas de deploy</div></td></tr><tr><td><div>False</div></td></tr><tr><td><div>http://www.web2py.com/book/default/chapter/13</div></td></tr></table></div></td></tr><tr><td><div><table><tr><td><div>Outras Receitas</div></td></tr><tr><td><div>False</div></td></tr><tr><td><div>http://www.web2py.com/book/default/chapter/14</div></td></tr></table></div></td></tr><tr><td><div><table><tr><td><div>Helping web2py</div></td></tr><tr><td><div>False</div></td></tr><tr><td><div>http://www.web2py.com/book/default/chapter/15</div></td></tr></table></div></td></tr><tr><td><div><table><tr><td><div>Buy web2py\'s book</div></td></tr><tr><td><div>False</div></td></tr><tr><td><div>http://stores.lulu.com/web2py</div></td></tr></table></div></td></tr></table></div></td></tr></table></div></td></tr><tr><td><div><table><tr><td><div>Comunidade</div></td></tr><tr><td><div>False</div></td></tr><tr><td><div>None</div></td></tr><tr><td><div><table><tr><td><div><table><tr><td><div>Grupos</div></td></tr><tr><td><div>False</div></td></tr><tr><td><div>http://www.web2py.com/examples/default/usergroups</div></td></tr></table></div></td></tr><tr><td><div><table><tr><td><div>Twitter</div></td></tr><tr><td><div>False</div></td></tr><tr><td><div>http://twitter.com/web2py</div></td></tr></table></div></td></tr><tr><td><div><table><tr><td><div>Chat ao vivo</div></td></tr><tr><td><div>False</div></td></tr><tr><td><div>http://webchat.freenode.net/?channels=web2py</div></td></tr></table></div></td></tr></table></div></td></tr></table></div></td></tr></table></div></td></tr><tr><td style="font-weight:bold;vertical-align:top;">meta</td><td style="vertical-align:top;">:</td><td><div><table><tr><td style="font-weight:bold;vertical-align:top;">author</td><td style="vertical-align:top;">:</td><td><div>Your Name &lt;you@example.com&gt;</div></td></tr><tr><td style="font-weight:bold;vertical-align:top;">description</td><td style="vertical-align:top;">:</td><td><div>a cool new app</div></td></tr><tr><td style="font-weight:bold;vertical-align:top;">generator</td><td style="vertical-align:top;">:</td><td><div>Web2py Web Framework</div></td></tr><tr><td style="font-weight:bold;vertical-align:top;">keywords</td><td style="vertical-align:top;">:</td><td><div><table><tr><td><div>web2py</div></td></tr><tr><td><div>python</div></td></tr><tr><td><div>framework</div></td></tr></table></div></td></tr></table></div></td></tr><tr><td style="font-weight:bold;vertical-align:top;">models_to_run</td><td style="vertical-align:top;">:</td><td><div><table><tr><td><div>^\\w+\\.py$</div></td></tr><tr><td><div>^default/\\w+\\.py$</div></td></tr><tr><td><div>^default/redpython/\\w+\\.py$</div></td></tr></table></div></td></tr><tr><td style="font-weight:bold;vertical-align:top;">postprocessing</td><td style="vertical-align:top;">:</td><td><div><table></table></div></td></tr><tr><td style="font-weight:bold;vertical-align:top;">session_client</td><td style="vertical-align:top;">:</td><td><div>127.0.0.1</div></td></tr><tr><td style="font-weight:bold;vertical-align:top;">session_cookie_compression_level</td><td style="vertical-align:top;">:</td><td><div>None</div></td></tr><tr><td style="font-weight:bold;vertical-align:top;">session_cookie_expires</td><td style="vertical-align:top;">:</td><td><div>None</div></td></tr><tr><td style="font-weight:bold;vertical-align:top;">session_data_name</td><td style="vertical-align:top;">:</td><td><div>session_data_api_redtube</div></td></tr><tr><td style="font-weight:bold;vertical-align:top;">session_file</td><td style="vertical-align:top;">:</td><td><div>None</div></td></tr><tr><td style="font-weight:bold;vertical-align:top;">session_filename</td><td style="vertical-align:top;">:</td><td><div>/home/amauri/web2py/applications/api_redtube/sessions/127.0.0.1-09c92805-beae-4341-a43e-be2f8f77a31e</div></td></tr><tr><td style="font-weight:bold;vertical-align:top;">session_hash</td><td style="vertical-align:top;">:</td><td><div>c0762cbf4baf7f9af97c051e7fcb8083</div></td></tr><tr><td style="font-weight:bold;vertical-align:top;">session_id</td><td style="vertical-align:top;">:</td><td><div>127.0.0.1-09c92805-beae-4341-a43e-be2f8f77a31e</div></td></tr><tr><td style="font-weight:bold;vertical-align:top;">session_id_name</td><td style="vertical-align:top;">:</td><td><div>session_id_api_redtube</div></td></tr><tr><td style="font-weight:bold;vertical-align:top;">session_masterapp</td><td style="vertical-align:top;">:</td><td><div>api_redtube</div></td></tr><tr><td style="font-weight:bold;vertical-align:top;">session_new</td><td style="vertical-align:top;">:</td><td><div>True</div></td></tr><tr><td style="font-weight:bold;vertical-align:top;">session_storage_type</td><td style="vertical-align:top;">:</td><td><div>file</div></td></tr><tr><td style="font-weight:bold;vertical-align:top;">status</td><td style="vertical-align:top;">:</td><td><div>200</div></td></tr><tr><td style="font-weight:bold;vertical-align:top;">subtitle</td><td style="vertical-align:top;">:</td><td><div></div></td></tr><tr><td style="font-weight:bold;vertical-align:top;">title</td><td style="vertical-align:top;">:</td><td><div>Api Redtube</div></td></tr><tr><td style="font-weight:bold;vertical-align:top;">view</td><td style="vertical-align:top;">:</td><td><div>default/redpython.html</div></td></tr></table></div>'
tRp119
sS'locals'
p120
(dp121
S'Service'
p122
S"<class 'gluon.tools.Service'>"
p123
sS'resp'
p124
S'<Response [200]>'
p125
sS'OBJECT'
p126
S"<class 'gluon.html.OBJECT'>"
p127
sS'SQLDB'
p128
S"<class 'pydal.base.DAL'>"
p129
sg112
S'<Storage {}>'
p130
sS'LINK'
p131
S"<class 'gluon.html.LINK'>"
p132
sS'BR'
p133
S"<class 'gluon.html.BR'>"
p134
sS'local_import'
p135
S'<function <lambda>>'
p136
sS'OPTGROUP'
p137
S"<class 'gluon.html.OPTGROUP'>"
p138
sS'__package__'
p139
S'None'
p140
sS'PRE'
p141
S"<class 'gluon.html.PRE'>"
p142
sS'IS_INT_IN_RANGE'
p143
S"<class 'gluon.validators.IS_INT_IN_RANGE'>"
p144
sS'IS_LOWER'
p145
S"<class 'gluon.validators.IS_LOWER'>"
p146
sS'IS_STRONG'
p147
S"<class 'gluon.validators.IS_STRONG'>"
p148
sS'cache'
p149
S'<gluon.cache.Cache object>'
p150
sS'IS_IN_DB'
p151
S"<class 'gluon.validators.IS_IN_DB'>"
p152
sS'TAG'
p153
S'<gluon.html.__TAG__ object>'
p154
sS'SQLField'
p155
S"<class 'pydal.objects.Field'>"
p156
sS'mail'
p157
S'<gluon.tools.Mail object>'
p158
sS'BODY'
p159
S"<class 'gluon.html.BODY'>"
p160
sS'IS_DATE_IN_RANGE'
p161
S"<class 'gluon.validators.IS_DATE_IN_RANGE'>"
p162
sS'IFRAME'
p163
S"<class 'gluon.html.IFRAME'>"
p164
sS'URL'
p165
S'<function URL>'
p166
sS'__file__'
p167
S"'/home/amauri/web2py/applications/api_redtube/views/default/redpython.html'"
p168
sS'db'
p169
S'<DAL uri="sqlite://storage.sqlite">'
p170
sS'auth'
p171
S'<gluon.tools.Auth object>'
p172
sS'P'
S"<class 'gluon.html.P'>"
p173
sS'TFOOT'
p174
S"<class 'gluon.html.TFOOT'>"
p175
sS'XHTML'
p176
S"<class 'gluon.html.XHTML'>"
p177
sS'ON'
p178
S'True'
p179
sS'OL'
p180
S"<class 'gluon.html.OL'>"
p181
sS'TEXTAREA'
p182
S"<class 'gluon.html.TEXTAREA'>"
p183
sS'MENU'
p184
S"<class 'gluon.html.MENU'>"
p185
sS'IS_IMAGE'
p186
S"<class 'gluon.validators.IS_IMAGE'>"
p187
sS'EM'
p188
S"<class 'gluon.html.EM'>"
p189
sS'CODE'
p190
S"<class 'gluon.html.CODE'>"
p191
sS'HTTP'
p192
S"<class 'gluon.http.HTTP'>"
p193
sS'HR'
p194
S"<class 'gluon.html.HR'>"
p195
sS'IS_DATETIME'
p196
S"<class 'gluon.validators.IS_DATETIME'>"
p197
sS'STYLE'
p198
S"<class 'gluon.html.STYLE'>"
p199
sS'LABEL'
p200
S"<class 'gluon.html.LABEL'>"
p201
sS'CLEANUP'
p202
S"<class 'gluon.validators.CLEANUP'>"
p203
sS'plugins'
p204
S'<gluon.tools.PluginManager object>'
p205
sS'SELECT'
p206
S"<class 'gluon.html.SELECT'>"
p207
sS'CENTER'
p208
S"<class 'gluon.html.CENTER'>"
p209
sS'Auth'
p210
S"<class 'gluon.tools.Auth'>"
p211
sS'DEVELOPMENT_MENU'
p212
g179
sS'__builtins__'
p213
S"{'ArithmeticError': <type 'exceptions.ArithmeticError'>, 'AssertionError': <type 'exceptions.AssertionError'>, 'AttributeError': <type 'exceptions.AttributeError'>, 'BaseException': <type 'exceptions.BaseException'>, 'BufferError': <type 'exceptions.BufferError'>, 'BytesWarning': <type 'exceptions.BytesWarning'>, 'DeprecationWarning': <type 'exceptions.DeprecationWarning'>, 'EOFError': <type 'exceptions.EOFError'>, 'Ellipsis': Ellipsis, 'EnvironmentError': <type 'exceptions.EnvironmentError'>, ...}"
p214
sS'HTML'
p215
S"<class 'gluon.html.HTML'>"
p216
sS'SQLFORM'
p217
S"<class 'gluon.sqlhtml.SQLFORM'>"
p218
sS'LOAD'
p219
S'<function LOAD>'
p220
sS'redirect'
p221
S'<function redirect>'
p222
sS'FIELDSET'
p223
S"<class 'gluon.html.FIELDSET'>"
p224
sS'IS_EQUAL_TO'
p225
S"<class 'gluon.validators.IS_EQUAL_TO'>"
p226
sS'embed64'
p227
S'<function embed64>'
p228
sS'IS_LIST_OF'
p229
S"<class 'gluon.validators.IS_LIST_OF'>"
p230
sS'INPUT'
p231
S"<class 'gluon.html.INPUT'>"
p232
sS'EMBED'
p233
S"<class 'gluon.html.EMBED'>"
p234
sS'_'
S'<function _>'
p235
sS'myconf'
p236
S"{'forms': {'formstyle': 'bootstrap3_inline', 'se...': {'names': 'localhost:*, 127.0.0.1:*, *:*, *'}}"
p237
sS'H2'
p238
S"<class 'gluon.html.H2'>"
p239
sS'H3'
p240
S"<class 'gluon.html.H3'>"
p241
sS'AppConfig'
p242
S'<function AppConfig>'
p243
sS'H1'
p244
S"<class 'gluon.html.H1'>"
p245
sS'H6'
p246
S"<class 'gluon.html.H6'>"
p247
sS'H4'
p248
S"<class 'gluon.html.H4'>"
p249
sS'H5'
p250
S"<class 'gluon.html.H5'>"
p251
sS'UL'
p252
S"<class 'gluon.html.UL'>"
p253
sS'IS_UPPER'
p254
S"<class 'gluon.validators.IS_UPPER'>"
p255
sS'xmlescape'
p256
S'<function xmlescape>'
p257
sS'IS_TIME'
p258
S"<class 'gluon.validators.IS_TIME'>"
p259
sS'OPTION'
p260
S"<class 'gluon.html.OPTION'>"
p261
sS'TITLE'
p262
S"<class 'gluon.html.TITLE'>"
p263
sS'CRYPT'
p264
S"<class 'gluon.validators.CRYPT'>"
p265
sS'IS_EMPTY_OR'
p266
S"<class 'gluon.validators.IS_EMPTY_OR'>"
p267
sS'MARKMIN'
p268
S"<class 'gluon.html.MARKMIN'>"
p269
sS'__name__'
p270
S"'__restricted__'"
p271
sS'STRONG'
p272
S"<class 'gluon.html.STRONG'>"
p273
sS'COL'
p274
S"<class 'gluon.html.COL'>"
p275
sS'service'
p276
S'<gluon.tools.Service object>'
p277
sS'SCRIPT'
p278
S"<class 'gluon.html.SCRIPT'>"
p279
sS'TABLE'
p280
S"<class 'gluon.html.TABLE'>"
p281
sS'IS_IPV4'
p282
S"<class 'gluon.validators.IS_IPV4'>"
p283
sS'IS_LENGTH'
p284
S"<class 'gluon.validators.IS_LENGTH'>"
p285
sS'IS_IPV6'
p286
S"<class 'gluon.validators.IS_IPV6'>"
p287
sS'XML'
p288
S"<class 'gluon.html.XML'>"
p289
sS'B'
S"<class 'gluon.html.B'>"
p290
sS'IMG'
p291
S"<class 'gluon.html.IMG'>"
p292
sS'SQLTABLE'
p293
S"<class 'gluon.sqlhtml.SQLTABLE'>"
p294
sS'IS_MATCH'
p295
S"<class 'gluon.validators.IS_MATCH'>"
p296
sS'IS_ALPHANUMERIC'
p297
S"<class 'gluon.validators.IS_ALPHANUMERIC'>"
p298
sS'lista'
p299
S"[{u'default_thumb': u'//thumbs-cdn.redtube.com/_thumbs/0001102/1102274/1102274_012m.jpg', u'duration': u'29:05', u'embed_url': u'http://embed.redtube.com/?id=1102274', u'publish_date': u'2016-11-01 03:00:01', u'rating': u'3.77', u'ratings': u'75', u'tags': [{u'tag_name': u'Big Ass'}, {u'tag_name': u'Big Cock'}, {u'tag_name': u'Black-haired'}, {u'tag_name': u'Blowjob'}, {u'tag_name': u'Brazilian'}, {u'tag_name': u'Couple'}, {u'tag_name': u'Cum Shot'}, {u'tag_name': u'Facial'}, {u'tag_name': u'Latin'}, {u'tag_name': u'Licking Vagina'}, {u'tag_name': u'Oral Sex'}, {u'tag_name': u'Pornstar'}, {u'tag_name': u'Vaginal Sex'}], u'thumb': u'//thumbs-cdn.redtube.com/_thumbs/0001102/1102274/1102274_012m.jpg', u'title': u'Brazilian Hot Brunette - Jessica Correia 3', u'url': u'http://www.redtube.com/1102274', ...}, {u'default_thumb': u'//thumbs-cdn.redtube.com/media/videos/0001780/1780822/thumbs/1780822_015m.jpg', u'duration': u'4:27', u'embed_url': u'http://embed.redtube.com/?id=1780822', u'publish_date': u'2016-11-01 02:13:07', u'rating': u'3.00', u'ratings': u'2', u'tags': [{u'tag_name': u'Latin'}], u'thumb': u'//thumbs-cdn.redtube.com/media/videos/0001780/1780822/thumbs/1780822_015m.jpg', u'title': u'BRAZILIAN MORENAHOTBH WEBCAM', u'url': u'http://www.redtube.com/1780822', ...}, {u'default_thumb': u'//thumbs-cdn.redtube.com/media/videos/0001780/1780748/thumbs/1780748_015m.jpg', u'duration': u'13:20', u'embed_url': u'http://embed.redtube.com/?id=1780748', u'publish_date': u'2016-11-01 02:00:38', u'rating': u'3.00', u'ratings': u'2', u'tags': [{u'tag_name': u'Amateur'}, {u'tag_name': u'Big Ass'}, {u'tag_name': u'Brazilian'}, {u'tag_name': u'Brunette'}, {u'tag_name': u'Teen'}, {u'tag_name': u'Webcam'}], u'thumb': u'//thumbs-cdn.redtube.com/media/videos/0001780/1780748/thumbs/1780748_015m.jpg', u'title': u'Brazilian curvy big butt videochating', u'url': u'http://www.redtube.com/1780748', ...}, {u'default_thumb': u'//thumbs-cdn.redtube.com/_thumbs/0000946/0946147/0946147_008m.jpg', u'duration': u'28:35', u'embed_url': u'http://embed.redtube.com/?id=946147', u'publish_date': u'2016-11-01 00:40:01', u'rating': u'3.77', u'ratings': u'97', u'tags': [{u'tag_name': u'Anal Sex'}, {u'tag_name': u'Black-haired'}, {u'tag_name': u'Blowjob'}, {u'tag_name': u'Brazilian'}, {u'tag_name': u'Cum Shot'}, {u'tag_name': u'Double Penetration'}, {u'tag_name': u'High Heels'}, {u'tag_name': u'Latin'}, {u'tag_name': u'Oral Sex'}, {u'tag_name': u'Small Tits'}, {u'tag_name': u'Threesome'}, {u'tag_name': u'Vaginal Sex'}], u'thumb': u'//thumbs-cdn.redtube.com/_thumbs/0000946/0946147/0946147_008m.jpg', u'title': u'499332', u'url': u'http://www.redtube.com/946147', ...}, {u'default_thumb': u'//thumbs-cdn.redtube.com/_thumbs/0001103/1103713/1103713_007m.jpg', u'duration': u'0:44', u'embed_url': u'http://embed.redtube.com/?id=1103713', u'publish_date': u'2016-10-31 22:40:01', u'rating': u'3.53', u'ratings': u'117', u'tags': [{u'tag_name': u'Amateur'}, {u'tag_name': u'Black-haired'}, {u'tag_name': u'Brazilian'}, {u'tag_name': u'Latin'}, {u'tag_name': u'Solo Girl'}, {u'tag_name': u'Striptease'}, {u'tag_name': u'Teen'}], u'thumb': u'//thumbs-cdn.redtube.com/_thumbs/0001103/1103713/1103713_007m.jpg', u'title': u'Ninfetinha de calcinha vermelha rebolando', u'url': u'http://www.redtube.com/1103713', ...}, {u'default_thumb': u'//thumbs-cdn.redtube.com/media/videos/0001780/1780121/thumbs/1780121_015m.jpg', u'duration': u'0:07', u'embed_url': u'http://embed.redtube.com/?id=1780121', u'publish_date': u'2016-10-31 08:40:24', u'rating': u'3.67', u'ratings': u'3', u'tags': [{u'tag_name': u'Big Tits'}, {u'tag_name': u'Brazilian'}, {u'tag_name': u'Latin'}, {u'tag_name': u'Licking Vagina'}, {u'tag_name': u'Masturbation'}], u'thumb': u'//thumbs-cdn.redtube.com/media/videos/0001780/1780121/thumbs/1780121_015m.jpg', u'title': u'My pussy', u'url': u'http://www.redtube.com/1780121', ...}, {u'default_thumb': u'//thumbs-cdn.redtube.com/media/videos/0001779/1779610/thumbs/1779610_015m.jpg', u'duration': u'', u'embed_url': u'http://embed.redtube.com/?id=1779610', u'publish_date': False, u'rating': u'3.00', u'ratings': u'2', u'tags': [{u'tag_name': u'Big Cock'}, {u'tag_name': u'Brazilian'}, {u'tag_name': u'German'}, {u'tag_name': u'Solo Gay'}, {u'tag_name': u'Solo Male'}, {u'tag_name': u'Webcam'}], u'thumb': u'//thumbs-cdn.redtube.com/media/videos/0001779/1779610/thumbs/1779610_015m.jpg', u'title': u'german hottie bigdick', u'url': u'http://www.redtube.com/1779610', ...}, {u'default_thumb': u'//thumbs-cdn.redtube.com/media/videos/0001778/1778352/thumbs/1778352_015m.jpg', u'duration': u'13:47', u'embed_url': u'http://embed.redtube.com/?id=1778352', u'publish_date': u'2016-10-29 22:42:18', u'rating': u'3.67', u'ratings': u'3', u'tags': [{u'tag_name': u'Brazilian'}, {u'tag_name': u'Masturbation'}, {u'tag_name': u'Piercings'}, {u'tag_name': u'Squirting'}, {u'tag_name': u'Toys'}], u'thumb': u'//thumbs-cdn.redtube.com/media/videos/0001778/1778352/thumbs/1778352_015m.jpg', u'title': u'Siririca com dois vibradores', u'url': u'http://www.redtube.com/1778352', ...}, {u'default_thumb': u'//thumbs-cdn.redtube.com/_thumbs/0001127/1127410/1127410_009m.jpg', u'duration': u'1:22:26', u'embed_url': u'http://embed.redtube.com/?id=1127410', u'publish_date': u'2016-10-29 17:30:02', u'rating': u'3.74', u'ratings': u'312', u'tags': [{u'tag_name': u'Anal Sex'}, {u'tag_name': u'Big Ass'}, {u'tag_name': u'Big Cock'}, {u'tag_name': u'Big Tits'}, {u'tag_name': u'Bikini'}, {u'tag_name': u'Black-haired'}, {u'tag_name': u'Blonde'}, {u'tag_name': u'Blowjob'}, {u'tag_name': u'Brazilian'}, {u'tag_name': u'Cum Shot'}, {u'tag_name': u'Deepthroat'}, {u'tag_name': u'Facial'}, {u'tag_name': u'Group Sex'}, {u'tag_name': u'Interracial'}, {u'tag_name': u'Latin'}, {u'tag_name': u'Licking Vagina'}, {u'tag_name': u'Masturbation'}, {u'tag_name': u'Oral Sex'}, {u'tag_name': u'Outdoor'}, {u'tag_name': u'Pool'}, ...], u'thumb': u'//thumbs-cdn.redtube.com/_thumbs/0001127/1127410/1127410_009m.jpg', u'title': u'Big Bubble Butt Brazilian Orgy 11- CD1', u'url': u'http://www.redtube.com/1127410', ...}, {u'default_thumb': u'//thumbs-cdn.redtube.com/media/videos/0001777/1777560/thumbs/1777560_015m.jpg', u'duration': u'1:22', u'embed_url': u'http://embed.redtube.com/?id=1777560', u'publish_date': u'2016-10-29 06:30:11', u'rating': u'3.00', u'ratings': u'2', u'tags': [{u'tag_name': u'Amateur'}, {u'tag_name': u'Brazilian'}, {u'tag_name': u'Couple'}, {u'tag_name': u'Cum Shot'}], u'thumb': u'//thumbs-cdn.redtube.com/media/videos/0001777/1777560/thumbs/1777560_015m.jpg', u'title': u'Gozando na bunda bronzeada da novinha', u'url': u'http://www.redtube.com/1777560', ...}, {u'default_thumb': u'//thumbs-cdn.redtube.com/media/videos/0001777/1777423/thumbs/1777423_015m.jpg', u'duration': u'8:00', u'embed_url': u'http://embed.redtube.com/?id=1777423', u'publish_date': u'2016-10-29 05:34:13', u'rating': u'3.00', u'ratings': u'2', u'tags': [{u'tag_name': u'Blonde'}, {u'tag_name': u'Blowjob'}, {u'tag_name': u'Brazilian'}, {u'tag_name': u'Teen'}], u'thumb': u'//thumbs-cdn.redtube.com/media/videos/0001777/1777423/thumbs/1777423_015m.jpg', u'title': u'brand new blonde giving pussy', u'url': u'http://www.redtube.com/1777423', ...}, {u'default_thumb': u'//thumbs-cdn.redtube.com/media/videos/0001598/1598586/thumbs/1598586_003m.jpg', u'duration': u'0:41', u'embed_url': u'http://embed.redtube.com/?id=1598586', u'publish_date': u'2016-10-29 04:10:01', u'rating': u'3.82', u'ratings': u'149', u'tags': [{u'tag_name': u'Amateur'}, {u'tag_name': u'Big Ass'}, {u'tag_name': u'Big Tits'}, {u'tag_name': u'Brazilian'}, {u'tag_name': u'Brunette'}, {u'tag_name': u'Latin'}, {u'tag_name': u'Threesome'}, {u'tag_name': u'Vaginal Sex'}], u'thumb': u'//thumbs-cdn.redtube.com/media/videos/0001598/1598586/thumbs/1598586_003m.jpg', u'title': u'Mulher De Corno Fodendo No Motel', u'url': u'http://www.redtube.com/1598586', ...}, {u'default_thumb': u'//thumbs-cdn.redtube.com/media/videos/0001777/1777354/thumbs/1777354_015m.jpg', u'duration': u'0:00', u'embed_url': u'http://embed.redtube.com/?id=1777354', u'publish_date': u'2016-10-28 21:25:04', u'rating': u'3.67', u'ratings': u'3', u'tags': [{u'tag_name': u'Amateur'}, {u'tag_name': u'Anal Sex'}, {u'tag_name': u'Brazilian'}, {u'tag_name': u'Casting'}, {u'tag_name': u'HD'}], u'thumb': u'//thumbs-cdn.redtube.com/media/videos/0001777/1777354/thumbs/1777354_015m.jpg', u'title': u'967735820 LINDA MIRAFLORES culona kinesiologa', u'url': u'http://www.redtube.com/1777354', ...}, {u'default_thumb': u'//thumbs-cdn.redtube.com/media/videos/0001777/1777314/thumbs/1777314_015m.jpg', u'duration': u'0:00', u'embed_url': u'http://embed.redtube.com/?id=1777314', u'publish_date': u'2016-10-28 18:17:46', u'rating': u'3.67', u'ratings': u'3', u'tags': [{u'tag_name': u'Amateur'}, {u'tag_name': u'Anal Masturbation'}, {u'tag_name': u'Brazilian'}, {u'tag_name': u'HD'}, {u'tag_name': u'Latex'}, {u'tag_name': u'Oral Sex'}], u'thumb': u'//thumbs-cdn.redtube.com/media/videos/0001777/1777314/thumbs/1777314_015m.jpg', u'title': u'videosperuporno EN HOTEL MIRAFLORES SRA LINDA', u'url': u'http://www.redtube.com/1777314', ...}, {u'default_thumb': u'//thumbs-cdn.redtube.com/_thumbs/0001406/1406857/1406857_016m.jpg', u'duration': u'16:06', u'embed_url': u'http://embed.redtube.com/?id=1406857', u'publish_date': u'2016-10-28 16:50:01', u'rating': u'3.95', u'ratings': u'145', u'tags': [{u'tag_name': u'Anal Sex'}, {u'tag_name': u'Big Cock'}, {u'tag_name': u'Blonde'}, {u'tag_name': u'Blowjob'}, {u'tag_name': u'Brazilian'}, {u'tag_name': u'Couple'}, {u'tag_name': u'Cum Shot'}, {u'tag_name': u'Facial'}, {u'tag_name': u'Latin'}, {u'tag_name': u'Masturbation'}, {u'tag_name': u'Oral Sex'}, {u'tag_name': u'Vaginal Masturbation'}, {u'tag_name': u'Vaginal Sex'}], u'thumb': u'//thumbs-cdn.redtube.com/_thumbs/0001406/1406857/1406857_016m.jpg', u'title': u'Mayra fodendo com cunhado', u'url': u'http://www.redtube.com/1406857', ...}, {u'default_thumb': u'//thumbs-cdn.redtube.com/_thumbs/0001126/1126412/1126412_015m.jpg', u'duration': u'1:27:06', u'embed_url': u'http://embed.redtube.com/?id=1126412', u'publish_date': u'2016-10-28 07:30:01', u'rating': u'3.34', u'ratings': u'202', u'tags': [{u'tag_name': u'Anal Masturbation'}, {u'tag_name': u'Anal Sex'}, {u'tag_name': u'Big Ass'}, {u'tag_name': u'Big Cock'}, {u'tag_name': u'Big Tits'}, {u'tag_name': u'Black-haired'}, {u'tag_name': u'Blonde'}, {u'tag_name': u'Blowjob'}, {u'tag_name': u'Brazilian'}, {u'tag_name': u'Brunette'}, {u'tag_name': u'Cum Shot'}, {u'tag_name': u'Group Sex'}, {u'tag_name': u'Interracial'}, {u'tag_name': u'Latin'}, {u'tag_name': u'Licking Vagina'}, {u'tag_name': u'Masturbation'}, {u'tag_name': u'Oral Sex'}, {u'tag_name': u'Outdoor'}, {u'tag_name': u'Pool'}, {u'tag_name': u'Shaved'}, ...], u'thumb': u'//thumbs-cdn.redtube.com/_thumbs/0001126/1126412/1126412_015m.jpg', u'title': u'Big Bubble Butt Brazilian Orgy 7- CD1', u'url': u'http://www.redtube.com/1126412', ...}, {u'default_thumb': u'//thumbs-cdn.redtube.com/media/videos/0001660/1660111/thumbs/1660111_008m.jpg', u'duration': u'27:10', u'embed_url': u'http://embed.redtube.com/?id=1660111', u'publish_date': u'2016-10-28 04:10:01', u'rating': u'3.24', u'ratings': u'230', u'tags': [{u'tag_name': u'Amateur'}, {u'tag_name': u'Anal Sex'}, {u'tag_name': u'Blowjob'}, {u'tag_name': u'Brazilian'}, {u'tag_name': u'Brunette'}, {u'tag_name': u'Double Penetration'}, {u'tag_name': u'HD'}, {u'tag_name': u'Handjob'}, {u'tag_name': u'Latin'}, {u'tag_name': u'Masturbation'}, {u'tag_name': u'Oral Sex'}, {u'tag_name': u'Shaved'}, {u'tag_name': u'Teen'}, {u'tag_name': u'Threesome'}, {u'tag_name': u'Vaginal Masturbation'}, {u'tag_name': u'Vaginal Sex'}, {u'tag_name': u'Webcam'}], u'thumb': u'//thumbs-cdn.redtube.com/media/videos/0001660/1660111/thumbs/1660111_008m.jpg', u'title': u'DOBLE PENETRACI&Oacute;N A JOVENCITA COLOMBIANA | TRIO AMATEUR', u'url': u'http://www.redtube.com/1660111', ...}, {u'default_thumb': u'//thumbs-cdn.redtube.com/media/videos/0001776/1776104/thumbs/1776104_015m.jpg', u'duration': u'4:18', u'embed_url': u'http://embed.redtube.com/?id=1776104', u'publish_date': u'2016-10-27 22:26:16', u'rating': u'3.00', u'ratings': u'2', u'tags': [{u'tag_name': u'Big Ass'}, {u'tag_name': u'Brunette'}, {u'tag_name': u'HD'}, {u'tag_name': u'Solo Girl'}, {u'tag_name': u'Teen'}, {u'tag_name': u'Webcam'}], u'thumb': u'//thumbs-cdn.redtube.com/media/videos/0001776/1776104/thumbs/1776104_015m.jpg', u'title': u'Big butt brazilian bouncing', u'url': u'http://www.redtube.com/1776104', ...}, {u'default_thumb': u'//thumbs-cdn.redtube.com/_thumbs/0001337/1337077/1337077_010m.jpg', u'duration': u'1:29:31', u'embed_url': u'http://embed.redtube.com/?id=1337077', u'publish_date': u'2016-10-27 09:00:01', u'rating': u'3.87', u'ratings': u'131', u'tags': [{u'tag_name': u'Anal Sex'}, {u'tag_name': u'Big Ass'}, {u'tag_name': u'Big Cock'}, {u'tag_name': u'Black-haired'}, {u'tag_name': u'Blowjob'}, {u'tag_name': u'Brazilian'}, {u'tag_name': u'Brunette'}, {u'tag_name': u'Couple'}, {u'tag_name': u'Cum Shot'}, {u'tag_name': u'Facial'}, {u'tag_name': u'High Heels'}, {u'tag_name': u'Latin'}, {u'tag_name': u'Licking Vagina'}, {u'tag_name': u'Oral Sex'}, {u'tag_name': u'Vaginal Sex'}], u'thumb': u'//thumbs-cdn.redtube.com/_thumbs/0001337/1337077/1337077_010m.jpg', u'title': u'as panteras', u'url': u'http://www.redtube.com/1337077', ...}, {u'default_thumb': u'//thumbs-cdn.redtube.com/_thumbs/0001122/1122062/1122062_014m.jpg', u'duration': u'1:09:26', u'embed_url': u'http://embed.redtube.com/?id=1122062', u'publish_date': u'2016-10-27 04:20:02', u'rating': u'3.55', u'ratings': u'201', u'tags': [{u'tag_name': u'Anal Sex'}, {u'tag_name': u'Big Ass'}, {u'tag_name': u'Big Cock'}, {u'tag_name': u'Big Tits'}, {u'tag_name': u'Black-haired'}, {u'tag_name': u'Blowjob'}, {u'tag_name': u'Brazilian'}, {u'tag_name': u'Brunette'}, {u'tag_name': u'Cum Shot'}, {u'tag_name': u'Double Penetration'}, {u'tag_name': u'Facial'}, {u'tag_name': u'Group Sex'}, {u'tag_name': u'Interracial'}, {u'tag_name': u'Latin'}, {u'tag_name': u'Oral Sex'}, {u'tag_name': u'Small Tits'}, {u'tag_name': u'Vaginal Sex'}], u'thumb': u'//thumbs-cdn.redtube.com/_thumbs/0001122/1122062/1122062_014m.jpg', u'title': u'Big Bubble Butt Brazillian Orgy 3 CD2', u'url': u'http://www.redtube.com/1122062', ...}, ...]"
p300
sS'SPAN'
p301
S"<class 'gluon.html.SPAN'>"
p302
sS'IS_JSON'
p303
S"<class 'gluon.validators.IS_JSON'>"
p304
sS'IS_IPADDRESS'
p305
S"<class 'gluon.validators.IS_IPADDRESS'>"
p306
sS'IS_SLUG'
p307
S"<class 'gluon.validators.IS_SLUG'>"
p308
sS'BEAUTIFY'
p309
S"<class 'gluon.html.BEAUTIFY'>"
p310
sS'META'
p311
S"<class 'gluon.html.META'>"
p312
sS'BUTTON'
p313
S"<class 'gluon.html.BUTTON'>"
p314
sS'IS_DATE'
p315
S"<class 'gluon.validators.IS_DATE'>"
p316
sS'IS_EMAIL'
p317
S"<class 'gluon.validators.IS_EMAIL'>"
p318
sS'IS_NOT_EMPTY'
p319
S"<class 'gluon.validators.IS_NOT_EMPTY'>"
p320
sS'IS_FLOAT_IN_RANGE'
p321
S"<class 'gluon.validators.IS_FLOAT_IN_RANGE'>"
p322
sS'TBODY'
p323
S"<class 'gluon.html.TBODY'>"
p324
sS'CAT'
p325
S"<class 'gluon.html.CAT'>"
p326
sS'Field'
p327
S"<class 'pydal.objects.Field'>"
p328
sS'qtde'
p329
S"'Foram encontrados 2501 v\\xc3\\xaddeos'"
p330
sS'IS_LIST_OF_EMAILS'
p331
S"<class 'gluon.validators.IS_LIST_OF_EMAILS'>"
p332
sS'DIV'
p333
S"<class 'gluon.html.DIV'>"
p334
sS'LEGEND'
p335
S"<class 'gluon.html.LEGEND'>"
p336
sS'COLGROUP'
p337
S"<class 'gluon.html.COLGROUP'>"
p338
sS'DAL'
p339
S"<class 'pydal.base.DAL'>"
p340
sS'ASSIGNJS'
p341
S'<function ASSIGNJS>'
p342
sS'TR'
p343
S"<class 'gluon.html.TR'>"
p344
sS'LI'
p345
S"<class 'gluon.html.LI'>"
p346
sS'TH'
p347
S"<class 'gluon.html.TH'>"
p348
sS'retorno'
p349
S"{u'count': 2501, u'videos': [{u'video': {u'default_thumb': u'//thumbs-cdn.redtube.com/_thumbs/0001102/1102274/1102274_012m.jpg', u'duration': u'29:05', u'embed_url': u'http://embed.redtube.com/?id=1102274', u'publish_date': u'2016-11-01 03:00:01', u'rating': u'3.77', u'ratings': u'75', u'tags': [{u'tag_name': u'Big Ass'}, {u'tag_name': u'Big Cock'}, {u'tag_name': u'Black-haired'}, {u'tag_name': u'Blowjob'}, {u'tag_name': u'Brazilian'}, {u'tag_name': u'Couple'}, {u'tag_name': u'Cum Shot'}, {u'tag_name': u'Facial'}, {u'tag_name': u'Latin'}, {u'tag_name': u'Licking Vagina'}, {u'tag_name': u'Oral Sex'}, {u'tag_name': u'Pornstar'}, {u'tag_name': u'Vaginal Sex'}], u'thumb': u'//thumbs-cdn.redtube.com/_thumbs/0001102/1102274/1102274_012m.jpg', u'title': u'Brazilian Hot Brunette - Jessica Correia 3', u'url': u'http://www.redtube.com/1102274', ...}}, {u'video': {u'default_thumb': u'//thumbs-cdn.redtube.com/media/videos/0001780/1780822/thumbs/1780822_015m.jpg', u'duration': u'4:27', u'embed_url': u'http://embed.redtube.com/?id=1780822', u'publish_date': u'2016-11-01 02:13:07', u'rating': u'3.00', u'ratings': u'2', u'tags': [{u'tag_name': u'Latin'}], u'thumb': u'//thumbs-cdn.redtube.com/media/videos/0001780/1780822/thumbs/1780822_015m.jpg', u'title': u'BRAZILIAN MORENAHOTBH WEBCAM', u'url': u'http://www.redtube.com/1780822', ...}}, {u'video': {u'default_thumb': u'//thumbs-cdn.redtube.com/media/videos/0001780/1780748/thumbs/1780748_015m.jpg', u'duration': u'13:20', u'embed_url': u'http://embed.redtube.com/?id=1780748', u'publish_date': u'2016-11-01 02:00:38', u'rating': u'3.00', u'ratings': u'2', u'tags': [{u'tag_name': u'Amateur'}, {u'tag_name': u'Big Ass'}, {u'tag_name': u'Brazilian'}, {u'tag_name': u'Brunette'}, {u'tag_name': u'Teen'}, {u'tag_name': u'Webcam'}], u'thumb': u'//thumbs-cdn.redtube.com/media/videos/0001780/1780748/thumbs/1780748_015m.jpg', u'title': u'Brazilian curvy big butt videochating', u'url': u'http://www.redtube.com/1780748', ...}}, {u'video': {u'default_thumb': u'//thumbs-cdn.redtube.com/_thumbs/0000946/0946147/0946147_008m.jpg', u'duration': u'28:35', u'embed_url': u'http://embed.redtube.com/?id=946147', u'publish_date': u'2016-11-01 00:40:01', u'rating': u'3.77', u'ratings': u'97', u'tags': [{u'tag_name': u'Anal Sex'}, {u'tag_name': u'Black-haired'}, {u'tag_name': u'Blowjob'}, {u'tag_name': u'Brazilian'}, {u'tag_name': u'Cum Shot'}, {u'tag_name': u'Double Penetration'}, {u'tag_name': u'High Heels'}, {u'tag_name': u'Latin'}, {u'tag_name': u'Oral Sex'}, {u'tag_name': u'Small Tits'}, {u'tag_name': u'Threesome'}, {u'tag_name': u'Vaginal Sex'}], u'thumb': u'//thumbs-cdn.redtube.com/_thumbs/0000946/0946147/0946147_008m.jpg', u'title': u'499332', u'url': u'http://www.redtube.com/946147', ...}}, {u'video': {u'default_thumb': u'//thumbs-cdn.redtube.com/_thumbs/0001103/1103713/1103713_007m.jpg', u'duration': u'0:44', u'embed_url': u'http://embed.redtube.com/?id=1103713', u'publish_date': u'2016-10-31 22:40:01', u'rating': u'3.53', u'ratings': u'117', u'tags': [{u'tag_name': u'Amateur'}, {u'tag_name': u'Black-haired'}, {u'tag_name': u'Brazilian'}, {u'tag_name': u'Latin'}, {u'tag_name': u'Solo Girl'}, {u'tag_name': u'Striptease'}, {u'tag_name': u'Teen'}], u'thumb': u'//thumbs-cdn.redtube.com/_thumbs/0001103/1103713/1103713_007m.jpg', u'title': u'Ninfetinha de calcinha vermelha rebolando', u'url': u'http://www.redtube.com/1103713', ...}}, {u'video': {u'default_thumb': u'//thumbs-cdn.redtube.com/media/videos/0001780/1780121/thumbs/1780121_015m.jpg', u'duration': u'0:07', u'embed_url': u'http://embed.redtube.com/?id=1780121', u'publish_date': u'2016-10-31 08:40:24', u'rating': u'3.67', u'ratings': u'3', u'tags': [{u'tag_name': u'Big Tits'}, {u'tag_name': u'Brazilian'}, {u'tag_name': u'Latin'}, {u'tag_name': u'Licking Vagina'}, {u'tag_name': u'Masturbation'}], u'thumb': u'//thumbs-cdn.redtube.com/media/videos/0001780/1780121/thumbs/1780121_015m.jpg', u'title': u'My pussy', u'url': u'http://www.redtube.com/1780121', ...}}, {u'video': {u'default_thumb': u'//thumbs-cdn.redtube.com/media/videos/0001779/1779610/thumbs/1779610_015m.jpg', u'duration': u'', u'embed_url': u'http://embed.redtube.com/?id=1779610', u'publish_date': False, u'rating': u'3.00', u'ratings': u'2', u'tags': [{u'tag_name': u'Big Cock'}, {u'tag_name': u'Brazilian'}, {u'tag_name': u'German'}, {u'tag_name': u'Solo Gay'}, {u'tag_name': u'Solo Male'}, {u'tag_name': u'Webcam'}], u'thumb': u'//thumbs-cdn.redtube.com/media/videos/0001779/1779610/thumbs/1779610_015m.jpg', u'title': u'german hottie bigdick', u'url': u'http://www.redtube.com/1779610', ...}}, {u'video': {u'default_thumb': u'//thumbs-cdn.redtube.com/media/videos/0001778/1778352/thumbs/1778352_015m.jpg', u'duration': u'13:47', u'embed_url': u'http://embed.redtube.com/?id=1778352', u'publish_date': u'2016-10-29 22:42:18', u'rating': u'3.67', u'ratings': u'3', u'tags': [{u'tag_name': u'Brazilian'}, {u'tag_name': u'Masturbation'}, {u'tag_name': u'Piercings'}, {u'tag_name': u'Squirting'}, {u'tag_name': u'Toys'}], u'thumb': u'//thumbs-cdn.redtube.com/media/videos/0001778/1778352/thumbs/1778352_015m.jpg', u'title': u'Siririca com dois vibradores', u'url': u'http://www.redtube.com/1778352', ...}}, {u'video': {u'default_thumb': u'//thumbs-cdn.redtube.com/_thumbs/0001127/1127410/1127410_009m.jpg', u'duration': u'1:22:26', u'embed_url': u'http://embed.redtube.com/?id=1127410', u'publish_date': u'2016-10-29 17:30:02', u'rating': u'3.74', u'ratings': u'312', u'tags': [{u'tag_name': u'Anal Sex'}, {u'tag_name': u'Big Ass'}, {u'tag_name': u'Big Cock'}, {u'tag_name': u'Big Tits'}, {u'tag_name': u'Bikini'}, {u'tag_name': u'Black-haired'}, {u'tag_name': u'Blonde'}, {u'tag_name': u'Blowjob'}, {u'tag_name': u'Brazilian'}, {u'tag_name': u'Cum Shot'}, {u'tag_name': u'Deepthroat'}, {u'tag_name': u'Facial'}, {u'tag_name': u'Group Sex'}, {u'tag_name': u'Interracial'}, {u'tag_name': u'Latin'}, {u'tag_name': u'Licking Vagina'}, {u'tag_name': u'Masturbation'}, {u'tag_name': u'Oral Sex'}, {u'tag_name': u'Outdoor'}, {u'tag_name': u'Pool'}, ...], u'thumb': u'//thumbs-cdn.redtube.com/_thumbs/0001127/1127410/1127410_009m.jpg', u'title': u'Big Bubble Butt Brazilian Orgy 11- CD1', u'url': u'http://www.redtube.com/1127410', ...}}, {u'video': {u'default_thumb': u'//thumbs-cdn.redtube.com/media/videos/0001777/1777560/thumbs/1777560_015m.jpg', u'duration': u'1:22', u'embed_url': u'http://embed.redtube.com/?id=1777560', u'publish_date': u'2016-10-29 06:30:11', u'rating': u'3.00', u'ratings': u'2', u'tags': [{u'tag_name': u'Amateur'}, {u'tag_name': u'Brazilian'}, {u'tag_name': u'Couple'}, {u'tag_name': u'Cum Shot'}], u'thumb': u'//thumbs-cdn.redtube.com/media/videos/0001777/1777560/thumbs/1777560_015m.jpg', u'title': u'Gozando na bunda bronzeada da novinha', u'url': u'http://www.redtube.com/1777560', ...}}, {u'video': {u'default_thumb': u'//thumbs-cdn.redtube.com/media/videos/0001777/1777423/thumbs/1777423_015m.jpg', u'duration': u'8:00', u'embed_url': u'http://embed.redtube.com/?id=1777423', u'publish_date': u'2016-10-29 05:34:13', u'rating': u'3.00', u'ratings': u'2', u'tags': [{u'tag_name': u'Blonde'}, {u'tag_name': u'Blowjob'}, {u'tag_name': u'Brazilian'}, {u'tag_name': u'Teen'}], u'thumb': u'//thumbs-cdn.redtube.com/media/videos/0001777/1777423/thumbs/1777423_015m.jpg', u'title': u'brand new blonde giving pussy', u'url': u'http://www.redtube.com/1777423', ...}}, {u'video': {u'default_thumb': u'//thumbs-cdn.redtube.com/media/videos/0001598/1598586/thumbs/1598586_003m.jpg', u'duration': u'0:41', u'embed_url': u'http://embed.redtube.com/?id=1598586', u'publish_date': u'2016-10-29 04:10:01', u'rating': u'3.82', u'ratings': u'149', u'tags': [{u'tag_name': u'Amateur'}, {u'tag_name': u'Big Ass'}, {u'tag_name': u'Big Tits'}, {u'tag_name': u'Brazilian'}, {u'tag_name': u'Brunette'}, {u'tag_name': u'Latin'}, {u'tag_name': u'Threesome'}, {u'tag_name': u'Vaginal Sex'}], u'thumb': u'//thumbs-cdn.redtube.com/media/videos/0001598/1598586/thumbs/1598586_003m.jpg', u'title': u'Mulher De Corno Fodendo No Motel', u'url': u'http://www.redtube.com/1598586', ...}}, {u'video': {u'default_thumb': u'//thumbs-cdn.redtube.com/media/videos/0001777/1777354/thumbs/1777354_015m.jpg', u'duration': u'0:00', u'embed_url': u'http://embed.redtube.com/?id=1777354', u'publish_date': u'2016-10-28 21:25:04', u'rating': u'3.67', u'ratings': u'3', u'tags': [{u'tag_name': u'Amateur'}, {u'tag_name': u'Anal Sex'}, {u'tag_name': u'Brazilian'}, {u'tag_name': u'Casting'}, {u'tag_name': u'HD'}], u'thumb': u'//thumbs-cdn.redtube.com/media/videos/0001777/1777354/thumbs/1777354_015m.jpg', u'title': u'967735820 LINDA MIRAFLORES culona kinesiologa', u'url': u'http://www.redtube.com/1777354', ...}}, {u'video': {u'default_thumb': u'//thumbs-cdn.redtube.com/media/videos/0001777/1777314/thumbs/1777314_015m.jpg', u'duration': u'0:00', u'embed_url': u'http://embed.redtube.com/?id=1777314', u'publish_date': u'2016-10-28 18:17:46', u'rating': u'3.67', u'ratings': u'3', u'tags': [{u'tag_name': u'Amateur'}, {u'tag_name': u'Anal Masturbation'}, {u'tag_name': u'Brazilian'}, {u'tag_name': u'HD'}, {u'tag_name': u'Latex'}, {u'tag_name': u'Oral Sex'}], u'thumb': u'//thumbs-cdn.redtube.com/media/videos/0001777/1777314/thumbs/1777314_015m.jpg', u'title': u'videosperuporno EN HOTEL MIRAFLORES SRA LINDA', u'url': u'http://www.redtube.com/1777314', ...}}, {u'video': {u'default_thumb': u'//thumbs-cdn.redtube.com/_thumbs/0001406/1406857/1406857_016m.jpg', u'duration': u'16:06', u'embed_url': u'http://embed.redtube.com/?id=1406857', u'publish_date': u'2016-10-28 16:50:01', u'rating': u'3.95', u'ratings': u'145', u'tags': [{u'tag_name': u'Anal Sex'}, {u'tag_name': u'Big Cock'}, {u'tag_name': u'Blonde'}, {u'tag_name': u'Blowjob'}, {u'tag_name': u'Brazilian'}, {u'tag_name': u'Couple'}, {u'tag_name': u'Cum Shot'}, {u'tag_name': u'Facial'}, {u'tag_name': u'Latin'}, {u'tag_name': u'Masturbation'}, {u'tag_name': u'Oral Sex'}, {u'tag_name': u'Vaginal Masturbation'}, {u'tag_name': u'Vaginal Sex'}], u'thumb': u'//thumbs-cdn.redtube.com/_thumbs/0001406/1406857/1406857_016m.jpg', u'title': u'Mayra fodendo com cunhado', u'url': u'http://www.redtube.com/1406857', ...}}, {u'video': {u'default_thumb': u'//thumbs-cdn.redtube.com/_thumbs/0001126/1126412/1126412_015m.jpg', u'duration': u'1:27:06', u'embed_url': u'http://embed.redtube.com/?id=1126412', u'publish_date': u'2016-10-28 07:30:01', u'rating': u'3.34', u'ratings': u'202', u'tags': [{u'tag_name': u'Anal Masturbation'}, {u'tag_name': u'Anal Sex'}, {u'tag_name': u'Big Ass'}, {u'tag_name': u'Big Cock'}, {u'tag_name': u'Big Tits'}, {u'tag_name': u'Black-haired'}, {u'tag_name': u'Blonde'}, {u'tag_name': u'Blowjob'}, {u'tag_name': u'Brazilian'}, {u'tag_name': u'Brunette'}, {u'tag_name': u'Cum Shot'}, {u'tag_name': u'Group Sex'}, {u'tag_name': u'Interracial'}, {u'tag_name': u'Latin'}, {u'tag_name': u'Licking Vagina'}, {u'tag_name': u'Masturbation'}, {u'tag_name': u'Oral Sex'}, {u'tag_name': u'Outdoor'}, {u'tag_name': u'Pool'}, {u'tag_name': u'Shaved'}, ...], u'thumb': u'//thumbs-cdn.redtube.com/_thumbs/0001126/1126412/1126412_015m.jpg', u'title': u'Big Bubble Butt Brazilian Orgy 7- CD1', u'url': u'http://www.redtube.com/1126412', ...}}, {u'video': {u'default_thumb': u'//thumbs-cdn.redtube.com/media/videos/0001660/1660111/thumbs/1660111_008m.jpg', u'duration': u'27:10', u'embed_url': u'http://embed.redtube.com/?id=1660111', u'publish_date': u'2016-10-28 04:10:01', u'rating': u'3.24', u'ratings': u'230', u'tags': [{u'tag_name': u'Amateur'}, {u'tag_name': u'Anal Sex'}, {u'tag_name': u'Blowjob'}, {u'tag_name': u'Brazilian'}, {u'tag_name': u'Brunette'}, {u'tag_name': u'Double Penetration'}, {u'tag_name': u'HD'}, {u'tag_name': u'Handjob'}, {u'tag_name': u'Latin'}, {u'tag_name': u'Masturbation'}, {u'tag_name': u'Oral Sex'}, {u'tag_name': u'Shaved'}, {u'tag_name': u'Teen'}, {u'tag_name': u'Threesome'}, {u'tag_name': u'Vaginal Masturbation'}, {u'tag_name': u'Vaginal Sex'}, {u'tag_name': u'Webcam'}], u'thumb': u'//thumbs-cdn.redtube.com/media/videos/0001660/1660111/thumbs/1660111_008m.jpg', u'title': u'DOBLE PENETRACI&Oacute;N A JOVENCITA COLOMBIANA | TRIO AMATEUR', u'url': u'http://www.redtube.com/1660111', ...}}, {u'video': {u'default_thumb': u'//thumbs-cdn.redtube.com/media/videos/0001776/1776104/thumbs/1776104_015m.jpg', u'duration': u'4:18', u'embed_url': u'http://embed.redtube.com/?id=1776104', u'publish_date': u'2016-10-27 22:26:16', u'rating': u'3.00', u'ratings': u'2', u'tags': [{u'tag_name': u'Big Ass'}, {u'tag_name': u'Brunette'}, {u'tag_name': u'HD'}, {u'tag_name': u'Solo Girl'}, {u'tag_name': u'Teen'}, {u'tag_name': u'Webcam'}], u'thumb': u'//thumbs-cdn.redtube.com/media/videos/0001776/1776104/thumbs/1776104_015m.jpg', u'title': u'Big butt brazilian bouncing', u'url': u'http://www.redtube.com/1776104', ...}}, {u'video': {u'default_thumb': u'//thumbs-cdn.redtube.com/_thumbs/0001337/1337077/1337077_010m.jpg', u'duration': u'1:29:31', u'embed_url': u'http://embed.redtube.com/?id=1337077', u'publish_date': u'2016-10-27 09:00:01', u'rating': u'3.87', u'ratings': u'131', u'tags': [{u'tag_name': u'Anal Sex'}, {u'tag_name': u'Big Ass'}, {u'tag_name': u'Big Cock'}, {u'tag_name': u'Black-haired'}, {u'tag_name': u'Blowjob'}, {u'tag_name': u'Brazilian'}, {u'tag_name': u'Brunette'}, {u'tag_name': u'Couple'}, {u'tag_name': u'Cum Shot'}, {u'tag_name': u'Facial'}, {u'tag_name': u'High Heels'}, {u'tag_name': u'Latin'}, {u'tag_name': u'Licking Vagina'}, {u'tag_name': u'Oral Sex'}, {u'tag_name': u'Vaginal Sex'}], u'thumb': u'//thumbs-cdn.redtube.com/_thumbs/0001337/1337077/1337077_010m.jpg', u'title': u'as panteras', u'url': u'http://www.redtube.com/1337077', ...}}, {u'video': {u'default_thumb': u'//thumbs-cdn.redtube.com/_thumbs/0001122/1122062/1122062_014m.jpg', u'duration': u'1:09:26', u'embed_url': u'http://embed.redtube.com/?id=1122062', u'publish_date': u'2016-10-27 04:20:02', u'rating': u'3.55', u'ratings': u'201', u'tags': [{u'tag_name': u'Anal Sex'}, {u'tag_name': u'Big Ass'}, {u'tag_name': u'Big Cock'}, {u'tag_name': u'Big Tits'}, {u'tag_name': u'Black-haired'}, {u'tag_name': u'Blowjob'}, {u'tag_name': u'Brazilian'}, {u'tag_name': u'Brunette'}, {u'tag_name': u'Cum Shot'}, {u'tag_name': u'Double Penetration'}, {u'tag_name': u'Facial'}, {u'tag_name': u'Group Sex'}, {u'tag_name': u'Interracial'}, {u'tag_name': u'Latin'}, {u'tag_name': u'Oral Sex'}, {u'tag_name': u'Small Tits'}, {u'tag_name': u'Vaginal Sex'}], u'thumb': u'//thumbs-cdn.redtube.com/_thumbs/0001122/1122062/1122062_014m.jpg', u'title': u'Big Bubble Butt Brazillian Orgy 3 CD2', u'url': u'http://www.redtube.com/1122062', ...}}, ...]}"
p350
sS'TD'
p351
S"<class 'gluon.html.TD'>"
p352
sS'PluginManager'
p353
S"<class 'gluon.tools.PluginManager'>"
p354
sS'IS_URL'
p355
S"<class 'gluon.validators.IS_URL'>"
p356
sS'A'
S"<class 'gluon.html.A'>"
p357
sS'HEAD'
p358
S"<class 'gluon.html.HEAD'>"
p359
sS'IS_DATETIME_IN_RANGE'
p360
S"<class 'gluon.validators.IS_DATETIME_IN_RANGE'>"
p361
sS'FORM'
p362
S"<class 'gluon.html.FORM'>"
p363
sS'I'
S"<class 'gluon.html.I'>"
p364
sS'IS_NOT_IN_DB'
p365
S"<class 'gluon.validators.IS_NOT_IN_DB'>"
p366
sg118
S"<Storage {'body': <cStringIO.StringO object at 0...7f5eaa357848>, 'view': 'default/redpython.html'}>"
p367
sS'THEAD'
p368
S"<class 'gluon.html.THEAD'>"
p369
sS'ANY_OF'
p370
S"<class 'gluon.validators.ANY_OF'>"
p371
sS'IS_NULL_OR'
p372
S"<class 'gluon.validators.IS_EMPTY_OR'>"
p373
sg56
S"<Storage {'_vars': <Storage {'texto': 'brazilian...'/home/amauri/web2py/applications/api_redtube/'}>"
p374
sS'IS_EXPR'
p375
S"<class 'gluon.validators.IS_EXPR'>"
p376
sS'T'
S'<gluon.languages.translator object>'
p377
sS'IS_IN_SET'
p378
S"<class 'gluon.validators.IS_IN_SET'>"
p379
sS'IS_UPLOAD_FILENAME'
p380
S"<class 'gluon.validators.IS_UPLOAD_FILENAME'>"
p381
sS'TT'
p382
S"<class 'gluon.html.TT'>"
p383
sS'IS_DECIMAL_IN_RANGE'
p384
S"<class 'gluon.validators.IS_DECIMAL_IN_RANGE'>"
p385
sssS'traceback'
p386
S'Traceback (most recent call last):\n  File "/home/amauri/web2py/gluon/restricted.py", line 227, in restricted\n    exec ccode in environment\n  File "/home/amauri/web2py/applications/api_redtube/views/default/redpython.html", line 4, in <module>\n    <meta charset="utf-8">\nNameError: name \'item\' is not defined\n'
p387
s.