(dp1
S'output'
p2
S"<type 'exceptions.IOError'> [Errno 2] Arquivo ou diret\xc3\xb3rio n\xc3\xa3o encontrado: 'C:\\\\temprel\\\\pro.txt'"
p3
sS'layer'
p4
S'/home/amauri/web2py/applications/relpc/controllers/default.py'
p5
sS'code'
p6
S'# -*- coding: utf-8 -*-\n# this file is released under public domain and you can use without limitations\n\n# -------------------------------------------------------------------------\n# This is a sample controller\n# - index is the default action of any application\n# - user is required for authentication and authorization\n# - download is for downloading files uploaded in the db (does streaming)\n# -------------------------------------------------------------------------\nimport platform, os\n\n\ndef index():\n    if not os.path.exists(\'C:\\\\temprel\'):\n        os.makedirs("c:\\\\temprel")\n\n    if platform.release() == "XP":\n        os.system("WMIC /output:C:\\\\temprel\\pro.txt product get name, version, installdate")\n    else:\n        os.system("Get-ItemProperty HKLM:\\\\Software\\\\Wow6432Node\\\\Microsoft\\\\Windows\\\\CurrentVersion\\\\Uninstall\\\\* | Select-Object DisplayName, DisplayVersion, InstallDate | Sort-Object -Property DisplayName -Unique | Format-Table -AutoSize > c:\\\\temprel\\pro.txt")\n\n\n    with open("C:\\\\temprel\\\\pro.txt") as f:\n            file = f.read()\n\n    message = """\n    Nome do computador: {0}\n    Sistema: {1}\n    Vers\xc3\xa3o: {2}\n    Plataforma: {3}\n    M\xc3\xa1quina: {4}\n    Arquitetura: {5}\n    Processador: {6}\\n\n    Programas Instalados: \\n{7}\n    """.format(\n    platform.node(),\n    platform.system(),\n    platform.release(),\n    platform.platform(),\n    platform.machine(),\n    platform.architecture(),\n    platform.processor(),\n    file)\n\n    if not os.path.exists(\'C:\\\\relpc\'):\n        os.makedirs("c:\\\\relpc")\n    with open("c:\\\\relpc\\\\relatorio.txt", "w") as w:\n        w.write(message)\n\n    return "OK"\n\ndef user():\n    """\n    exposes:\n    http://..../[app]/default/user/login\n    http://..../[app]/default/user/logout\n    http://..../[app]/default/user/register\n    http://..../[app]/default/user/profile\n    http://..../[app]/default/user/retrieve_password\n    http://..../[app]/default/user/change_password\n    http://..../[app]/default/user/bulk_register\n    use @auth.requires_login()\n        @auth.requires_membership(\'group name\')\n        @auth.requires_permission(\'read\',\'table name\',record_id)\n    to decorate functions that need access control\n    also notice there is http://..../[app]/appadmin/manage/auth to allow administrator to manage users\n    """\n    return dict(form=auth())\n\n\n@cache.action()\ndef download():\n    """\n    allows downloading of uploaded files\n    http://..../[app]/default/download/[filename]\n    """\n    return response.download(request, db)\n\n\ndef call():\n    """\n    exposes services. for example:\n    http://..../[app]/default/call/jsonrpc\n    decorate with @services.jsonrpc the functions to expose\n    supports xml, json, xmlrpc, jsonrpc, amfrpc, rss, csv\n    """\n    return service()\n\n\n\nresponse._vars=response._caller(index)\n'
p7
sS'snapshot'
p8
(dp9
sS'traceback'
p10
S'Traceback (most recent call last):\n  File "/home/amauri/web2py/gluon/restricted.py", line 227, in restricted\n    exec ccode in environment\n  File "/home/amauri/web2py/applications/relpc/controllers/default.py", line 91, in <module>\n  File "/home/amauri/web2py/gluon/globals.py", line 417, in <lambda>\n    self._caller = lambda f: f()\n  File "/home/amauri/web2py/applications/relpc/controllers/default.py", line 23, in index\n    with open("C:\\\\temprel\\\\pro.txt") as f:\nIOError: [Errno 2] Arquivo ou diret\xc3\xb3rio n\xc3\xa3o encontrado: \'C:\\\\temprel\\\\pro.txt\'\n'
p11
s.