(dp1
S'output'
p2
S"<type 'exceptions.NameError'> global name 'nomeTimeA' is not defined"
p3
sS'layer'
p4
S'/home/amauri/web2py/applications/Torneio/controllers/funcoes.py'
p5
sS'code'
p6
S'def atualiza_pontos():\n\t# equipe = request.vars.\n\tdados = db(CLUBES.clube=="Palmeiras").select()\n\tprint request.vars\n\t# print request.vars.name\n\tprint nomeTimeA\n\tgrid = SQLFORM.grid(CLUBES)\n\treturn grid\n\t# print dados\n\t# return \n\n\n\n\n\n\n\n"""\ndef index():\n    dados = db(CLUBES.clube=="Palmeiras").select(CLUBES.pontos)\n    for dado in dados:\n        res = int(dado.pontos)\n    return res + 3\n"""\n\n\nresponse._vars=response._caller(atualiza_pontos)\n'
p7
sS'snapshot'
p8
(dp9
sS'traceback'
p10
S'Traceback (most recent call last):\n  File "/home/amauri/web2py/gluon/restricted.py", line 227, in restricted\n    exec ccode in environment\n  File "/home/amauri/web2py/applications/Torneio/controllers/funcoes.py", line 27, in <module>\n  File "/home/amauri/web2py/gluon/globals.py", line 417, in <lambda>\n    self._caller = lambda f: f()\n  File "/home/amauri/web2py/applications/Torneio/controllers/funcoes.py", line 6, in atualiza_pontos\n    print nomeTimeA\nNameError: global name \'nomeTimeA\' is not defined\n'
p11
s.