(dp1
S'output'
p2
S"<type 'exceptions.TypeError'> format requires a mapping"
p3
sS'layer'
p4
S'/home/amauri/web2py/applications/plano_de_acao/views/default/index.html'
p5
sS'code'
p6
S'response.write(\'<!DOCTYPE html>\\n<!--[if (gt IE 9)|!(IE)]><!--> <html class="no-js" lang="\', escape=False)\nresponse.write(T.accepted_language or \'en\')\nresponse.write(\'"> <!--<![endif]-->\\n  <head>\\n    <meta charset="utf-8">\\n    <!-- www.phpied.com/conditional-comments-block-downloads/ -->\\n    <!-- Always force latest IE rendering engine\\n         (even in intranet) & Chrome Frame\\n         Remove this if you use the .htaccess -->\\n    <meta http-equiv="X-UA-Compatible" content="IE=edge\', escape=False)\nresponse.write(not request.is_local and \',chrome=1\' or \'\')\nresponse.write(\'">\\n    <!--  Mobile Viewport Fix\\n          j.mp/mobileviewport & davidbcalhoun.com/2010/viewport-metatag\\n          device-width: Occupy full width of the screen in its current orientation\\n          initial-scale = 1.0 retains dimensions instead of zooming out if page height > device height\\n          user-scalable = yes allows the user to zoom in -->\\n    <meta name="viewport" content="width=device-width, initial-scale=1.0">\\n    <title>\', escape=False)\nresponse.write(response.title or request.application)\nresponse.write(\'</title>\\n    <!-- http://dev.w3.org/html5/markup/meta.name.html -->\\n    <meta name="application-name" content="\', escape=False)\nresponse.write(request.application)\nresponse.write(\'">\\n    <!-- Speaking of Google, don\\\'t forget to set your site up:\\n         http://google.com/webmasters -->\\n    <meta name="google-site-verification" content="">\\n    <!-- include stylesheets -->\\n    <link rel="stylesheet" href="\', escape=False)\nresponse.write(URL(\'static\',\'css/bootstrap.min.css\'))\nresponse.write(\'"/>\\n    <link rel="stylesheet" href="\', escape=False)\nresponse.write(URL(\'static\',\'css/web2py-bootstrap3.css\'))\nresponse.write(\'"/>\\n    <link rel="shortcut icon" href="\', escape=False)\nresponse.write(URL(\'static\',\'images/favicon.ico\'))\nresponse.write(\'" type="image/x-icon">\\n    <link rel="apple-touch-icon" href="\', escape=False)\nresponse.write(URL(\'static\',\'images/favicon.png\'))\nresponse.write(\'">\\n    <!-- All JavaScript at the bottom, except for Modernizr which enables\\n         HTML5 elements & feature detects -->\\n    <script src="\', escape=False)\nresponse.write(URL(\'static\',\'js/modernizr-2.8.3.min.js\'))\nresponse.write(\'"></script>\\n\\n    <!-- jQuery e Tablesorter -->\\n    <!-- <script type="text/javascript" src="\', escape=False)\nresponse.write(URL(\'static\',\'js/scripts.js\'))\nresponse.write(\'"></script> -->\\n    \\n    <script type="text/javascript" src="\', escape=False)\nresponse.write(URL(\'static\',\'js/jquery-latest.js\'))\nresponse.write(\'"></script>\\n    <script type="text/javascript" src="\', escape=False)\nresponse.write(URL(\'static\',\'js/jquery.tablesorter.min.js\'))\nresponse.write(\'"></script>\\n\\n<!--     <script type="text/javascript">\\n    $(document).ready(function() \\n        { \\n            $(".tablesorter").tablesorter(); \\n        } \\n    ); \\n    </script> -->\\n    \\n    <!-- <script type="text/javascript">\\n    $(document).ready(function() \\n        { \\n            $("#myTable").tablesorter(); \\n        } \\n    ); \\n    </script>\\n     -->\\n    <style>\\n      th, td{cursor: pointer;}\\n    </style>\\n\\n<!--     <script type="text/javascript">\\n    $(document).ready(function(){\\n        $(\\\'.link\\\').click(function(){\\n            window.location = $(this).attr(\\\'href\\\');\\n            return false;\\n        });\\n        // jQuery(\\\'#concluidos\\\').click(function() {\\n        //   ajax(\\\'\', escape=False)\nresponse.write(URL(\'funcoes\', \'concluidos\'))\nresponse.write(\'\\\')\\n        //   // return false;\\n        // });\\n    });\\n    </script> -->\\n\\n\\n    <!--[if lt IE 9]>\\n        <script src="\', escape=False)\nresponse.write(URL(\'static\',\'js/respond-1.4.2.min.js\'))\nresponse.write(\'"></script>\\n        <![endif]-->\\n    <!-- Favicons -->\\n    \', escape=False)\nresponse.write(\'<script type="text/javascript"><!--\\n    // These variables are used by the web2py_ajax_init function in web2py_ajax.js (which is loaded below).\\n    var w2p_ajax_confirm_message = "\', escape=False)\nresponse.write(T(\'Are you sure you want to delete this object?\'))\nresponse.write(\'";\\n    var w2p_ajax_disable_with_message = "\', escape=False)\nresponse.write(T(\'Working...\'))\nresponse.write(\'";\\n    var w2p_ajax_date_format = "\', escape=False)\nresponse.write(T(\'%Y-%m-%d\'))\nresponse.write(\'";\\n    var w2p_ajax_datetime_format = "\', escape=False)\nresponse.write(T(\'%Y-%m-%d %H:%M:%S\'))\nresponse.write(\'";\\n    var ajax_error_500 = \\\'\', escape=False)\nresponse.write(T.M(\'An error occured, please [[reload %s]] the page\') % URL(args=request.args, vars=request.get_vars))\nresponse.write("\'\\n    //--></script>\\n", escape=False)\nresponse.files.insert(0,URL(\'static\',\'js/jquery.js\'))\nresponse.files.insert(1,URL(\'static\',\'css/calendar.css\'))\nresponse.files.insert(2,URL(\'static\',\'js/calendar.js\'))\nresponse.files.insert(3,URL(\'static\',\'js/web2py.js\'))\nresponse.include_meta()\nresponse.include_files()\nresponse.write(\'\\n\', escape=False)\nresponse.write(\' <!-- this includes jquery.js, calendar.js/.css and web2py.js -->\\n    \', escape=False)\nresponse.write(\'\\n    \', escape=False)\n# using sidebars need to know what sidebar you want to use\nmc0 = \'col-md-12\'\nmc1 = \'col-md-9\'\nmc2 = \'col-md-6\'\nleft_sidebar_enabled = globals().get(\'left_sidebar_enabled\', False)\nright_sidebar_enabled = globals().get(\'right_sidebar_enabled\', False)\nmiddle_column = {0: mc0, 1: mc1, 2: mc2}[\n(left_sidebar_enabled and 1 or 0)+(right_sidebar_enabled and 1 or 0)]\nresponse.write(\'\\n\\n  </head>\\n  <body>\\n    <!--[if lt IE 8]><p class="browserupgrade">You are using an <strong>outdated</strong> browser. Please <a href="http://browsehappy.com/">upgrade your browser</a> to improve your experience.</p><![endif]-->\\n    <div class="w2p_flash alert alert-dismissable">\', escape=False)\nresponse.write(response.flash or \'\')\nresponse.write(\'</div>\\n    <!-- Navbar ======================================= -->\\n    <nav class="navbar navbar-default navbar-fixed-top" role="navigation">\\n      <div class="container-fluid">\\n        <div class="navbar-header">\\n          <button type="button" class="navbar-toggle" data-toggle="collapse" data-target=".navbar-collapse">\\n            <span class="sr-only">Toggle navigation</span>\\n            <span class="icon-bar"></span>\\n            <span class="icon-bar"></span>\\n            <span class="icon-bar"></span>\\n          </button>\\n          \', escape=False)\nresponse.write(response.logo or \'\')\nresponse.write(\'\\n        </div>\\n        <div class="collapse navbar-collapse navbar-ex1-collapse">\\n          <ul class="nav navbar-nav navbar-right">\\n            \', escape=False)\nresponse.write(\'auth\' in globals() and auth.navbar(\'Welcome\',mode=\'dropdown\') or \'\')\nresponse.write(\'\\n          </ul>\\n          \', escape=False)\nif response.menu:\n    response.write(\'\\n          \', escape=False)\n    response.write(MENU(response.menu, _class=\'nav navbar-nav\',li_class=\'dropdown\',ul_class=\'dropdown-menu\'))\n    response.write(\'\\n          \', escape=False)\n    pass\nresponse.write(\'\\n        </div>\\n      </div>\\n    </nav>\\n    <!-- Masthead ===================================== -->    \\n    \', escape=False)\nresponse.write(\'\\n    \', escape=False)\nresponse.write(\'\\n    <!-- Main ========================================= -->\\n    <!-- Begin page content -->\\n    <div class="container-fluid main-container">\\n      \', escape=False)\nif left_sidebar_enabled:\n    response.write(\'\\n        <div class="col-md-3 left-sidebar">\\n            \', escape=False)\n    response.write(\'\\n            <h3>Left Sidebar</h3>\\n            <p></p>\\n            \', escape=False)\n    response.write(\'\\n        </div>\\n      \', escape=False)\n    pass\nresponse.write(\'\\n\\n      <div class="\', escape=False)\nresponse.write(middle_column)\nresponse.write(\'">\\n        \', escape=False)\nresponse.write(\'\\n        \', escape=False)\nresponse.write(\'\\n\\n<!-- <div class="row">\\n\\t<div class="col-xs-12 col-lg-3">\\n\\t\\t<a href="\', escape=False)\nresponse.write(URL(\'novo_plano\'))\nresponse.write(\'" class="btn btn-primary">Criar novo plano</a><br /><br />\\n\\t</div>\\n</div>\\n -->\\n<ul class="nav nav-tabs">\\n\\t<li id="li-planos" class="active"><a data-toggle="tab" href="#planos">Planos</a></li>\\n\\t<li id="li-concluidos"><a data-toggle="tab" href="#concluidos">Conclu\\xc3\\xaddos</a></li>\\n\\t<li id="li-novo_plano"><a data-toggle="tab" href="#novo_plano">Novo Plano</a></li>\\n</ul>\\n\\n<div class="tab-content">\\n\\t<div id="planos" class="row tab-pane fade in active">\\n\\t\\t<div class="col-xs-12">\\n\\t\\t\\t<table class="tablesorter table table-hover">\\n\\t\\t\\t<thead>\\n\\t\\t\\t\\t<tr class="active">\\n\\t\\t\\t\\t\\t<th><button type="button" class="btn btn-active btn-sm">Setor \\n\\t\\t\\t\\t\\t<span class="glyphicon glyphicon-triangle-bottom" aria-hidden="true"></span></button></th>\\n\\t\\t\\t\\t\\t<th><button type="button" class="btn btn-active btn-sm">T\\xc3\\xadtulo \\n\\t\\t\\t\\t\\t<span class="glyphicon glyphicon-triangle-bottom" aria-hidden="true"></span></button></th>\\n\\t\\t\\t\\t\\t<th><button type="button" class="btn btn-active btn-sm">Descri\\xc3\\xa7\\xc3\\xa3o  \\n\\t\\t\\t\\t\\t<span class="glyphicon glyphicon-triangle-bottom" aria-hidden="true"></span></button></th>\\n\\t\\t\\t\\t\\t<th><button type="button" class="btn btn-active btn-sm">Plano \\n\\t\\t\\t\\t\\t<span class="glyphicon glyphicon-triangle-bottom" aria-hidden="true"></span></button></th>\\n\\t\\t\\t\\t\\t<th><button type="button" class="btn btn-active btn-sm">A\\xc3\\xa7\\xc3\\xa3o \\n\\t\\t\\t\\t\\t<span class="glyphicon glyphicon-triangle-bottom" aria-hidden="true"></span></button></th>\\n\\t\\t\\t\\t\\t<th><button type="button" class="btn btn-active btn-sm">Prazo \\n\\t\\t\\t\\t\\t<span class="glyphicon glyphicon-triangle-bottom" aria-hidden="true"></span></button></th>\\n\\t\\t\\t\\t\\t<th><button type="button" class="btn btn-active btn-sm">Dias\\n\\t\\t\\t\\t\\t<span class="glyphicon glyphicon-triangle-bottom" aria-hidden="true"></span></button></th>\\n\\t\\t\\t\\t\\t<th><button type="button" class="btn btn-active btn-sm">Conclu\\xc3\\xaddo \\n\\t\\t\\t\\t\\t<span class="glyphicon glyphicon-triangle-bottom" aria-hidden="true"></span></button></th>\\n\\t\\t\\t\\t</tr>\\n\\t\\t\\t</thead>\\n\\t\\t\\t\\t\', escape=False)\nfor plano in planos:\n    response.write(\'\\n\\t\\t\\t<tbody>\\n\\t\\t\\t\\t<tr class="link" href="\', escape=False)\n    response.write(URL(\'editar_plano\', args=plano.id))\n    response.write(\'">\\n\\t\\t\\t\\t\\t<td>\', escape=False)\n    response.write(\'%(setor)s\' %(plano.depto))\n    response.write(\'</td>\\n\\t\\t\\t\\t\\t<td>\', escape=False)\n    response.write(\'%(problema)s\' %(plano.titulo))\n    response.write(\'</td>\\n\\t\\t\\t\\t\\t<td>\', escape=False)\n    response.write(plano.descricao)\n    response.write(\'</td>\\n\\t\\t\\t\\t\\t<td>\', escape=False)\n    response.write(plano.plano)\n    response.write(\'</td>\\n\\t\\t\\t\\t\\t<td>\', escape=False)\n    response.write(plano.acao)\n    response.write(\'</td>\\n\\t\\t\\t\\t\\t<td>\', escape=False)\n    response.write(plano.prazo.strftime("%d/%m/%Y"))\n    response.write(\'</td>\\n\\t\\t\\t\\t\\t\', escape=False)\n    faltando = plano.prazo - datetime.date.today()\n    response.write(\'\\n\\t\\t\\t\\t\\t\', escape=False)\n    if  int(faltando.days) == 1:\n        response.write(\'\\n\\t\\t\\t\\t\\t<td>\', escape=False)\n        response.write(\'FALTA %s DIA\' %(faltando.days))\n        response.write(\'</td>\\n\\t\\t\\t\\t\\t\', escape=False)\n    elif int(faltando.days) == -1:\n        response.write(\'\\n\\t\\t\\t\\t\\t<td>\', escape=False)\n        response.write(\'ATRASADO %s DIA\' %(faltando.days * -1))\n        response.write(\'</td>\\n\\t\\t\\t\\t\\t\', escape=False)\n    elif int(faltando.days) == 0:\n        response.write(\'\\n\\t\\t\\t\\t\\t<td>HOJE</td>\\n\\t\\t\\t\\t\\t\', escape=False)\n    elif int(faltando.days) < -1:\n        response.write(\'\\n\\t\\t\\t\\t\\t<td>\', escape=False)\n        response.write(\'ATRASADO %s DIAS\' %(faltando.days * -1))\n        response.write(\'</td>\\n\\t\\t\\t\\t\\t\', escape=False)\n    else:\n        response.write(\'\\n\\t\\t\\t\\t\\t<td>\', escape=False)\n        response.write(\'FALTAM %s DIAS\' %faltando.days)\n        response.write(\'</td>\\n\\t\\t\\t\\t\\t\', escape=False)\n        pass\n    response.write(\'\\n\\t\\t\\t\\t\\t<td>\', escape=False)\n    response.write(plano.concluido)\n    response.write(\'</td>\\n\\t\\t\\t\\t</tr>\\n\\t\\t\\t\\t\', escape=False)\n    pass\nresponse.write(\'\\n\\t\\t\\t</tbody>\\n\\t\\t\\t</table>\\n\\t\\t</div>\\n\\t</div>\\n\\n\\n\\t<div id="concluidos" class="row tab-pane fade in">\\n\\t\\t<div class="col-xs-12">\\n\\t\\t\\t<table class="tablesorter table table-hover">\\n\\t\\t\\t<thead>\\n\\t\\t\\t\\t<tr class="active">\\n\\t\\t\\t\\t\\t<th><button type="button" class="btn btn-active btn-sm">Setor \\n\\t\\t\\t\\t\\t<span class="glyphicon glyphicon-triangle-bottom" aria-hidden="true"></span></button></th>\\n\\t\\t\\t\\t\\t<th><button type="button" class="btn btn-active btn-sm">T\\xc3\\xadtulo \\n\\t\\t\\t\\t\\t<span class="glyphicon glyphicon-triangle-bottom" aria-hidden="true"></span></button></th>\\n\\t\\t\\t\\t\\t<th><button type="button" class="btn btn-active btn-sm">Descri\\xc3\\xa7\\xc3\\xa3o  \\n\\t\\t\\t\\t\\t<span class="glyphicon glyphicon-triangle-bottom" aria-hidden="true"></span></button></th>\\n\\t\\t\\t\\t\\t<th><button type="button" class="btn btn-active btn-sm">Plano \\n\\t\\t\\t\\t\\t<span class="glyphicon glyphicon-triangle-bottom" aria-hidden="true"></span></button></th>\\n\\t\\t\\t\\t\\t<th><button type="button" class="btn btn-active btn-sm">A\\xc3\\xa7\\xc3\\xa3o \\n\\t\\t\\t\\t\\t<span class="glyphicon glyphicon-triangle-bottom" aria-hidden="true"></span></button></th>\\n\\t\\t\\t\\t\\t<th><button type="button" class="btn btn-active btn-sm">In\\xc3\\xadcio \\n\\t\\t\\t\\t\\t<span class="glyphicon glyphicon-triangle-bottom" aria-hidden="true"></span></button></th>\\n\\t\\t\\t\\t\\t<th><button type="button" class="btn btn-active btn-sm">T\\xc3\\xa9rmino \\n\\t\\t\\t\\t\\t<span class="glyphicon glyphicon-triangle-bottom" aria-hidden="true"></span></button></th>\\n\\t\\t\\t\\t\\t<th><button type="button" class="btn btn-active btn-sm">Conclu\\xc3\\xaddo \\n\\t\\t\\t\\t\\t<span class="glyphicon glyphicon-triangle-bottom" aria-hidden="true"></span></button></th>\\n\\t\\t\\t\\t</tr>\\n\\t\\t\\t</thead>\\n\\t\\t\\t\\t\', escape=False)\nfor concluido in concluidos:\n    response.write(\'\\n\\t\\t\\t<tbody>\\n\\t\\t\\t\\t<tr class="link" href="\', escape=False)\n    response.write(URL(\'ver_concluido\', args=concluido.id))\n    response.write(\'">\\n\\t\\t\\t\\t\\t<td>\', escape=False)\n    response.write(\'%(setor)s\' %(concluido.depto))\n    response.write(\'</td>\\n\\t\\t\\t\\t\\t<td>\', escape=False)\n    response.write(\'%(problema)s\' %(concluido.titulo))\n    response.write(\'</td>\\n\\t\\t\\t\\t\\t<td>\', escape=False)\n    response.write(concluido.descricao)\n    response.write(\'</td>\\n\\t\\t\\t\\t\\t<td>\', escape=False)\n    response.write(concluido.plano)\n    response.write(\'</td>\\n\\t\\t\\t\\t\\t<td>\', escape=False)\n    response.write(concluido.acao)\n    response.write(\'</td>\\n\\t\\t\\t\\t\\t<td>\', escape=False)\n    response.write(concluido.created_on)\n    response.write(\'</td>\\n\\t\\t\\t\\t\\t<td>\', escape=False)\n    response.write(concluido.modified_on)\n    response.write(\'</td>\\n\\t\\t\\t\\t\\t<td>\', escape=False)\n    response.write(concluido.concluido)\n    response.write(\'</td>\\n\\t\\t\\t\\t\\t\', escape=False)\n    pass\nresponse.write(\'\\n\\t\\t\\t\\t</tr>\\n\\t\\t\\t\\t\', escape=False)\npass\nresponse.write(\'\\n\\t\\t\\t</tbody>\\n\\t\\t\\t</table>\\n\\t\\t</div>\\n\\t</div>\\n\\n\\t<div id="novo_plano" class="row tab-pane fade in">\\n\\t\\t<div class="col-xs-12">\\n\\t\\t\\t\', escape=False)\nresponse.write(form.custom.begin)\nresponse.write(\'\\n\\t\\t\\t<div class="col-xs-3 col-lg-3">\\n\\t\\t\\t\\t<br />\\n\\t\\t\\t\\t\', escape=False)\nform.elements(\'#plano_depto\')[0][\'class\']=\'form-control\'\nresponse.write(\'\\n\\t\\t\\t\\t\', escape=False)\nform.elements(\'#plano_depto\')[0]\nresponse.write(\'\\n\\t\\t\\t\\t\', escape=False)\nresponse.write(form.custom.label.depto)\nresponse.write(\'\\n\\t\\t\\t\\t\', escape=False)\nresponse.write(form.custom.widget.depto)\nresponse.write(\'\\n\\t\\t\\t\\t<br />\\n\\t\\t\\t\\t\', escape=False)\nform.elements(\'#plano_titulo\')[0][\'class\']=\'form-control\'\nresponse.write(\'\\n\\t\\t\\t\\t\', escape=False)\nform.elements(\'#plano_titulo\')[0]\nresponse.write(\'\\n\\t\\t\\t\\t\', escape=False)\nresponse.write(form.custom.label.titulo)\nresponse.write(\'\\n\\t\\t\\t\\t\', escape=False)\nresponse.write(form.custom.widget.titulo)\nresponse.write(\'\\n\\t\\t\\t\\t<br />\\n\\t\\t\\t\\t\', escape=False)\nform.elements(\'#plano_prazo\')[0][\'class\']=\'form-control\'\nresponse.write(\'\\n\\t\\t\\t\\t\', escape=False)\nform.elements(\'#plano_prazo\')[0][\'_placeholder\']=\'PRAZO\'\nresponse.write(\'\\n\\t\\t\\t\\t\', escape=False)\nresponse.write(form.custom.label.prazo)\nresponse.write(\'\\n\\t\\t\\t\\t\', escape=False)\nresponse.write(form.custom.widget.prazo)\nresponse.write(\'\\n\\t\\t\\t\\t<br />\\n\\t\\t\\t\\t\', escape=False)\nresponse.write(form.custom.label.concluido)\nresponse.write(\'\\n\\t\\t\\t\\t\', escape=False)\nresponse.write(form.custom.widget.concluido)\nresponse.write(\'\\n\\t\\t\\t\\t<div class="col-xs-12 text-center">\\n\\t\\t\\t\\t\\t\', escape=False)\nform.element(_type=\'submit\')[\'_style\']=\'border-radius:5px;\'\nresponse.write(\'\\n\\t\\t\\t\\t\\t\', escape=False)\nresponse.write(form.custom.submit)\nresponse.write(\'\\t\', escape=False)\nresponse.write(button)\nresponse.write(\'\\n\\t\\t\\t\\t</div>\\n\\t\\t\\t</div>\\n\\t\\t\\t<br />\\n\\t\\t\\t<div class="col-xs-3 col-lg-3">\\n\\t\\t\\t\\t\', escape=False)\nform.elements(\'#plano_descricao\')[0][\'_style\']=\'height: 350px;\'\nresponse.write(\'\\n\\t\\t\\t\\t\', escape=False)\nform.elements(\'#plano_descricao\')[0][\'class\']=\'form-control\'\nresponse.write(\'\\n\\t\\t\\t\\t\', escape=False)\nform.elements(\'#plano_descricao\')[0][\'_placeholder\']=\'DESCRI\xc3\x87\xc3\x83O\'\nresponse.write(\'\\n\\t\\t\\t\\t\', escape=False)\nresponse.write(form.custom.label.descricao)\nresponse.write(\'\\n\\t\\t\\t\\t\', escape=False)\nresponse.write(form.custom.widget.descricao)\nresponse.write(\'\\n\\t\\t\\t</div>\\n\\t\\t\\t<div class="col-xs-3 col-lg-3">\\n\\t\\t\\t\\t\', escape=False)\nform.elements(\'#plano_plano\')[0][\'class\']=\'form-control\'\nresponse.write(\'\\n\\t\\t\\t\\t\', escape=False)\nform.elements(\'#plano_plano\')[0][\'_style\']=\'height: 350px;\'\nresponse.write(\'\\n\\t\\t\\t\\t\', escape=False)\nform.elements(\'#plano_plano\')[0][\'_placeholder\']=\'PLANO\'\nresponse.write(\'\\n\\t\\t\\t\\t\', escape=False)\nresponse.write(form.custom.label.plano)\nresponse.write(\'\\n\\t\\t\\t\\t\', escape=False)\nresponse.write(form.custom.widget.plano)\nresponse.write(\'\\n\\t\\t\\t</div>\\n\\t\\t\\t<div class="col-xs-3 col-lg-3">\\n\\t\\t\\t\\t\', escape=False)\nform.elements(\'#plano_acao\')[0][\'class\']=\'form-control\'\nresponse.write(\'\\n\\t\\t\\t\\t\', escape=False)\nform.elements(\'#plano_acao\')[0][\'_style\']=\'height: 350px;\'\nresponse.write(\'\\n\\t\\t\\t\\t\', escape=False)\nform.elements(\'#plano_acao\')[0][\'_placeholder\']=\'A\xc3\x87\xc3\x83O\'\nresponse.write(\'\\n\\t\\t\\t\\t\', escape=False)\nresponse.write(form.custom.label.acao)\nresponse.write(\'\\n\\t\\t\\t\\t\', escape=False)\nresponse.write(form.custom.widget.acao)\nresponse.write(\'\\n\\t\\t\\t</div>\\n\\n\\n\\t\\t\\t\', escape=False)\nresponse.write(form.custom.end)\nresponse.write(\'\\n\\t\\t</div>\\n\\t</div>\\n</div>\\n\\n<!-- <a href="\', escape=False)\nresponse.write(URL(\'novo_plano\'))\nresponse.write(\'" class="btn btn-primary">Criar novo plano</a> -->\\n\\n\', escape=False)\nif form.errors:\n    response.write(\'\\n<script type="text/javascript">\\n\\t$(\\\'#planos\\\').toggleClass("active");\\n  \\t$(\\\'#novo_plano\\\').toggleClass("active");\\n  \\t$(\\\'#li-planos\\\').toggleClass("active");\\n  \\t$(\\\'#li-novo_plano\\\').toggleClass("active");\\n </script>\\n\', escape=False)\n    pass\nresponse.write(\'\\n\\n\\n\\n\\n<table id="myTable" class="tablesorter"> \\n<thead> \\n<tr> \\n    <th>Last Name</th> \\n    <th>First Name</th> \\n    <th>Email</th> \\n    <th>Due</th> \\n    <th>Web Site</th> \\n</tr> \\n</thead> \\n<tbody> \\n<tr> \\n    <td>Smith</td> \\n    <td>John</td> \\n    <td>jsmith@gmail.com</td> \\n    <td>$50.00</td> \\n    <td>http://www.jsmith.com</td> \\n</tr> \\n<tr> \\n    <td>Bach</td> \\n    <td>Frank</td> \\n    <td>fbach@yahoo.com</td> \\n    <td>$50.00</td> \\n    <td>http://www.frank.com</td> \\n</tr> \\n<tr> \\n    <td>Doe</td> \\n    <td>Jason</td> \\n    <td>jdoe@hotmail.com</td> \\n    <td>$100.00</td> \\n    <td>http://www.jdoe.com</td> \\n</tr> \\n<tr> \\n    <td>Conway</td> \\n    <td>Tim</td> \\n    <td>tconway@earthlink.net</td> \\n    <td>$50.00</td> \\n    <td>http://www.timconway.com</td> \\n</tr> \\n</tbody> \\n</table> \\n\\n\\n<table class="tablesorter">\\n\\t<thead>\\n\\t\\t<tr>\\n\\t\\t<th>NOME</th>\\n\\t\\t<th>SOBRENOME</th>\\n\\t\\t<th>IDADE</th>\\n\\t\\t</tr>\\n\\t</thead>\\n\\t<tbody>\\n\\t\\t<tr>\\n\\t\\t\\t<td>Amauri</td>\\n\\t\\t\\t<td>Rossetti</td>\\n\\t\\t\\t<td>42</td>\\n\\t\\t</tr>\\n\\t\\t<tr>\\n\\t\\t\\t<td>Ana Paula</td>\\n\\t\\t\\t<td>Santos</td>\\n\\t\\t\\t<td>43</td>\\n\\t\\t</tr>\\n\\t\\t<tr>\\n\\t\\t\\t<td>Fernanda</td>\\n\\t\\t\\t<td>Giovani</td>\\n\\t\\t\\t<td>14</td>\\n\\t\\t</tr>\\n\\t</tbody>\\n</table>\\n\\n\\n\\n\\n<table class="tablesorter table table-hover">\\n<thead>\\n\\t<tr>\\n\\t\\t<th>N\\xc3\\xbameros</th>\\n\\t</tr>\\n</thead>\\n\\t\\n<tbody>\\n\\t\', escape=False)\nfor i in planos:\n    response.write(\'\\n\\t<tr>\\n\\t\\t<td>\', escape=False)\n    response.write(\'%(setor)s\' %(i.prazo))\n    response.write(\'</td>\\n\\t</tr>\\n\\t\', escape=False)\n    pass\nresponse.write(\'\\n</tbody>\\n\\n</table>\\n\\n<!--     <script type="text/javascript" src="\', escape=False)\nresponse.write(URL(\'static\',\'js/jquery-latest.js\'))\nresponse.write(\'"></script>\\n    <script type="text/javascript" src="\', escape=False)\nresponse.write(URL(\'static\',\'js/jquery.tablesorter.min.js\'))\nresponse.write(\'"></script>\\n -->\\n<!-- \\n<script type="text/javascript">\\n    $(document).ready(function() \\n        { \\n            $(".tablesorter").tablesorter(); \\n        } \\n    ); \\n</script>\\n -->\', escape=False)\nresponse.write(\'\\n        \', escape=False)\nresponse.write(\'\\n      </div>\\n\\n      \', escape=False)\nif right_sidebar_enabled:\n    response.write(\'\\n        <div class="col-md-3">\\n            \', escape=False)\n    response.write(\'\\n            <h3>Right Sidebar</h3>\\n            <p></p>\\n            \', escape=False)\n    response.write(\'\\n        </div>\\n      \', escape=False)\n    pass\nresponse.write(\'\\n\\n    </div>\\n\\n    \', escape=False)\nresponse.write(\' <!-- this is default footer -->      \\n    <footer class="footer">\\n      <div class="container-fluid">\\n        <div class="copyright pull-left">\', escape=False)\nresponse.write(T(\'Copyright\'))\nresponse.write(\' &#169; \', escape=False)\nresponse.write(request.now.year)\nresponse.write(\'</div>\\n          <div id="poweredBy" class="pull-right">\\n            \', escape=False)\nresponse.write(T(\'Powered by\'))\nresponse.write(\'\\n            <a href="http://www.web2py.com/">web2py</a>\\n          </div>\\n      </div>\\n    </footer>\\n    \', escape=False)\nresponse.write(\'\\n    <!-- The javascript =============================== -->\\n    <script src="\', escape=False)\nresponse.write(URL(\'static\',\'js/bootstrap.min.js\'))\nresponse.write(\'"></script>\\n    <script src="\', escape=False)\nresponse.write(URL(\'static\',\'js/web2py-bootstrap3.js\'))\nresponse.write(\'"></script>\\n    \', escape=False)\nresponse.write(\'\\n    \', escape=False)\nif response.google_analytics_id:\n    response.write(\'\\n    <!-- Analytics ==================================== -->\\n    <script src="\', escape=False)\n    response.write(URL(\'static\',\'js/analytics.min.js\'))\n    response.write(\'"></script>\\n    <script type="text/javascript">\\n      analytics.initialize({\\n      \\\'Google Analytics\\\':{trackingId:\\\'\', escape=False)\n    response.write(response.google_analytics_id)\n    response.write("\'}\\n      });\\n    </script>\\n    ", escape=False)\n    pass\nresponse.write(\'\\n    <!-- Share ============================y============ -->\\n    <script src="\', escape=False)\nresponse.write(URL(\'static\',\'js/share.js\',vars=dict(static=URL(\'static\',\'images\'))))\nresponse.write(\'"></script>\\n    <script type="text/javascript" src="\', escape=False)\nresponse.write(URL(\'static\',\'js/scripts.js\'))\nresponse.write(\'"></script>\\n\\n    <script type="text/javascript" src="\', escape=False)\nresponse.write(URL(\'static\',\'js/jquery-latest.js\'))\nresponse.write(\'"></script>\\n    <script type="text/javascript" src="\', escape=False)\nresponse.write(URL(\'static\',\'js/jquery.tablesorter.min.js\'))\nresponse.write(\'"></script>\\n\\n  </body>\\n</html>\\n\', escape=False)'
p7
sS'snapshot'
p8
(dp9
S'exception'
p10
(dp11
S'__hash__'
p12
S"<method-wrapper '__hash__' of exceptions.TypeError object>"
p13
sS'__setattr__'
p14
S"<method-wrapper '__setattr__' of exceptions.TypeError object>"
p15
sS'__reduce_ex__'
p16
S'<built-in method __reduce_ex__ of exceptions.TypeError object>'
p17
sS'__getslice__'
p18
S"<method-wrapper '__getslice__' of exceptions.TypeError object>"
p19
sS'__getitem__'
p20
S"<method-wrapper '__getitem__' of exceptions.TypeError object>"
p21
sS'__setstate__'
p22
S'<built-in method __setstate__ of exceptions.TypeError object>'
p23
sS'args'
p24
S"('format requires a mapping',)"
p25
sS'__reduce__'
p26
S'<built-in method __reduce__ of exceptions.TypeError object>'
p27
sS'__str__'
p28
S"<method-wrapper '__str__' of exceptions.TypeError object>"
p29
sS'__format__'
p30
S'<built-in method __format__ of exceptions.TypeError object>'
p31
sS'__getattribute__'
p32
S"<method-wrapper '__getattribute__' of exceptions.TypeError object>"
p33
sS'__class__'
p34
S"<type 'exceptions.TypeError'>"
p35
sS'__unicode__'
p36
S'<built-in method __unicode__ of exceptions.TypeError object>'
p37
sS'__delattr__'
p38
S"<method-wrapper '__delattr__' of exceptions.TypeError object>"
p39
sS'__subclasshook__'
p40
S'<built-in method __subclasshook__ of type object>'
p41
sS'__repr__'
p42
S"<method-wrapper '__repr__' of exceptions.TypeError object>"
p43
sS'__dict__'
p44
S'{}'
p45
sS'__sizeof__'
p46
S'<built-in method __sizeof__ of exceptions.TypeError object>'
p47
sS'__doc__'
p48
S"'Inappropriate argument type.'"
p49
sS'__init__'
p50
S"<method-wrapper '__init__' of exceptions.TypeError object>"
p51
sS'__new__'
p52
S'<built-in method __new__ of type object>'
p53
ssS'evalue'
p54
S'format requires a mapping'
p55
sS'request'
p56
cgluon.html
XML_unpickle
p57
(S's\xcfz\x00\x00<div><table><tr><td style="font-weight:bold;vertical-align:top;">ajax</td><td style="vertical-align:top;">:</td><td><div>False</div></td></tr><tr><td style="font-weight:bold;vertical-align:top;">application</td><td style="vertical-align:top;">:</td><td><div>plano_de_acao</div></td></tr><tr><td style="font-weight:bold;vertical-align:top;">args</td><td style="vertical-align:top;">:</td><td><div><table></table></div></td></tr><tr><td style="font-weight:bold;vertical-align:top;">cid</td><td style="vertical-align:top;">:</td><td><div>None</div></td></tr><tr><td style="font-weight:bold;vertical-align:top;">client</td><td style="vertical-align:top;">:</td><td><div>127.0.0.1</div></td></tr><tr><td style="font-weight:bold;vertical-align:top;">controller</td><td style="vertical-align:top;">:</td><td><div>default</div></td></tr><tr><td style="font-weight:bold;vertical-align:top;">cookies</td><td style="vertical-align:top;">:</td><td><div><table><tr><td style="font-weight:bold;vertical-align:top;">csrftoken</td><td style="vertical-align:top;">:</td><td><div>zUg0GfSOAJg9xFGMkkpYCcLbsMDDmksZypHQYZlWDPcYDxYsDIZ6Oj6pyzFFSO35<table><tr><td style="font-weight:bold;vertical-align:top;">comment</td><td style="vertical-align:top;">:</td><td><div></div></td></tr><tr><td style="font-weight:bold;vertical-align:top;">domain</td><td style="vertical-align:top;">:</td><td><div></div></td></tr><tr><td style="font-weight:bold;vertical-align:top;">expires</td><td style="vertical-align:top;">:</td><td><div></div></td></tr><tr><td style="font-weight:bold;vertical-align:top;">httponly</td><td style="vertical-align:top;">:</td><td><div></div></td></tr><tr><td style="font-weight:bold;vertical-align:top;">max-age</td><td style="vertical-align:top;">:</td><td><div></div></td></tr><tr><td style="font-weight:bold;vertical-align:top;">path</td><td style="vertical-align:top;">:</td><td><div></div></td></tr><tr><td style="font-weight:bold;vertical-align:top;">secure</td><td style="vertical-align:top;">:</td><td><div></div></td></tr><tr><td style="font-weight:bold;vertical-align:top;">version</td><td style="vertical-align:top;">:</td><td><div></div></td></tr></table></div></td></tr><tr><td style="font-weight:bold;vertical-align:top;">session_id_admin</td><td style="vertical-align:top;">:</td><td><div>127.0.0.1-94762b97-b3f4-42fb-a365-c24f4bf3b5ed<table><tr><td style="font-weight:bold;vertical-align:top;">comment</td><td style="vertical-align:top;">:</td><td><div></div></td></tr><tr><td style="font-weight:bold;vertical-align:top;">domain</td><td style="vertical-align:top;">:</td><td><div></div></td></tr><tr><td style="font-weight:bold;vertical-align:top;">expires</td><td style="vertical-align:top;">:</td><td><div></div></td></tr><tr><td style="font-weight:bold;vertical-align:top;">httponly</td><td style="vertical-align:top;">:</td><td><div></div></td></tr><tr><td style="font-weight:bold;vertical-align:top;">max-age</td><td style="vertical-align:top;">:</td><td><div></div></td></tr><tr><td style="font-weight:bold;vertical-align:top;">path</td><td style="vertical-align:top;">:</td><td><div></div></td></tr><tr><td style="font-weight:bold;vertical-align:top;">secure</td><td style="vertical-align:top;">:</td><td><div></div></td></tr><tr><td style="font-weight:bold;vertical-align:top;">version</td><td style="vertical-align:top;">:</td><td><div></div></td></tr></table></div></td></tr><tr><td style="font-weight:bold;vertical-align:top;">session_id_combo</td><td style="vertical-align:top;">:</td><td><div>127.0.0.1-474e54f7-72ed-4ec2-9537-256bfaaedfe0<table><tr><td style="font-weight:bold;vertical-align:top;">comment</td><td style="vertical-align:top;">:</td><td><div></div></td></tr><tr><td style="font-weight:bold;vertical-align:top;">domain</td><td style="vertical-align:top;">:</td><td><div></div></td></tr><tr><td style="font-weight:bold;vertical-align:top;">expires</td><td style="vertical-align:top;">:</td><td><div></div></td></tr><tr><td style="font-weight:bold;vertical-align:top;">httponly</td><td style="vertical-align:top;">:</td><td><div></div></td></tr><tr><td style="font-weight:bold;vertical-align:top;">max-age</td><td style="vertical-align:top;">:</td><td><div></div></td></tr><tr><td style="font-weight:bold;vertical-align:top;">path</td><td style="vertical-align:top;">:</td><td><div></div></td></tr><tr><td style="font-weight:bold;vertical-align:top;">secure</td><td style="vertical-align:top;">:</td><td><div></div></td></tr><tr><td style="font-weight:bold;vertical-align:top;">version</td><td style="vertical-align:top;">:</td><td><div></div></td></tr></table></div></td></tr><tr><td style="font-weight:bold;vertical-align:top;">session_id_fest</td><td style="vertical-align:top;">:</td><td><div>127.0.0.1-4b8cdaae-665f-4809-884f-39605a9c7e9b<table><tr><td style="font-weight:bold;vertical-align:top;">comment</td><td style="vertical-align:top;">:</td><td><div></div></td></tr><tr><td style="font-weight:bold;vertical-align:top;">domain</td><td style="vertical-align:top;">:</td><td><div></div></td></tr><tr><td style="font-weight:bold;vertical-align:top;">expires</td><td style="vertical-align:top;">:</td><td><div></div></td></tr><tr><td style="font-weight:bold;vertical-align:top;">httponly</td><td style="vertical-align:top;">:</td><td><div></div></td></tr><tr><td style="font-weight:bold;vertical-align:top;">max-age</td><td style="vertical-align:top;">:</td><td><div></div></td></tr><tr><td style="font-weight:bold;vertical-align:top;">path</td><td style="vertical-align:top;">:</td><td><div></div></td></tr><tr><td style="font-weight:bold;vertical-align:top;">secure</td><td style="vertical-align:top;">:</td><td><div></div></td></tr><tr><td style="font-weight:bold;vertical-align:top;">version</td><td style="vertical-align:top;">:</td><td><div></div></td></tr></table></div></td></tr><tr><td style="font-weight:bold;vertical-align:top;">session_id_plano_de_acao</td><td style="vertical-align:top;">:</td><td><div>127.0.0.1-6f549c8e-0e30-48f6-a03c-84706719cfad<table><tr><td style="font-weight:bold;vertical-align:top;">comment</td><td style="vertical-align:top;">:</td><td><div></div></td></tr><tr><td style="font-weight:bold;vertical-align:top;">domain</td><td style="vertical-align:top;">:</td><td><div></div></td></tr><tr><td style="font-weight:bold;vertical-align:top;">expires</td><td style="vertical-align:top;">:</td><td><div></div></td></tr><tr><td style="font-weight:bold;vertical-align:top;">httponly</td><td style="vertical-align:top;">:</td><td><div></div></td></tr><tr><td style="font-weight:bold;vertical-align:top;">max-age</td><td style="vertical-align:top;">:</td><td><div></div></td></tr><tr><td style="font-weight:bold;vertical-align:top;">path</td><td style="vertical-align:top;">:</td><td><div></div></td></tr><tr><td style="font-weight:bold;vertical-align:top;">secure</td><td style="vertical-align:top;">:</td><td><div></div></td></tr><tr><td style="font-weight:bold;vertical-align:top;">version</td><td style="vertical-align:top;">:</td><td><div></div></td></tr></table></div></td></tr><tr><td style="font-weight:bold;vertical-align:top;">session_id_torneio</td><td style="vertical-align:top;">:</td><td><div>127.0.0.1-74758298-090c-41ad-907d-48244dffe4e2<table><tr><td style="font-weight:bold;vertical-align:top;">comment</td><td style="vertical-align:top;">:</td><td><div></div></td></tr><tr><td style="font-weight:bold;vertical-align:top;">domain</td><td style="vertical-align:top;">:</td><td><div></div></td></tr><tr><td style="font-weight:bold;vertical-align:top;">expires</td><td style="vertical-align:top;">:</td><td><div></div></td></tr><tr><td style="font-weight:bold;vertical-align:top;">httponly</td><td style="vertical-align:top;">:</td><td><div></div></td></tr><tr><td style="font-weight:bold;vertical-align:top;">max-age</td><td style="vertical-align:top;">:</td><td><div></div></td></tr><tr><td style="font-weight:bold;vertical-align:top;">path</td><td style="vertical-align:top;">:</td><td><div></div></td></tr><tr><td style="font-weight:bold;vertical-align:top;">secure</td><td style="vertical-align:top;">:</td><td><div></div></td></tr><tr><td style="font-weight:bold;vertical-align:top;">version</td><td style="vertical-align:top;">:</td><td><div></div></td></tr></table></div></td></tr><tr><td style="font-weight:bold;vertical-align:top;">session_id_utils</td><td style="vertical-align:top;">:</td><td><div>127.0.0.1-0f7f3c0a-723d-47c4-b18d-6bc22ca71e56<table><tr><td style="font-weight:bold;vertical-align:top;">comment</td><td style="vertical-align:top;">:</td><td><div></div></td></tr><tr><td style="font-weight:bold;vertical-align:top;">domain</td><td style="vertical-align:top;">:</td><td><div></div></td></tr><tr><td style="font-weight:bold;vertical-align:top;">expires</td><td style="vertical-align:top;">:</td><td><div></div></td></tr><tr><td style="font-weight:bold;vertical-align:top;">httponly</td><td style="vertical-align:top;">:</td><td><div></div></td></tr><tr><td style="font-weight:bold;vertical-align:top;">max-age</td><td style="vertical-align:top;">:</td><td><div></div></td></tr><tr><td style="font-weight:bold;vertical-align:top;">path</td><td style="vertical-align:top;">:</td><td><div></div></td></tr><tr><td style="font-weight:bold;vertical-align:top;">secure</td><td style="vertical-align:top;">:</td><td><div></div></td></tr><tr><td style="font-weight:bold;vertical-align:top;">version</td><td style="vertical-align:top;">:</td><td><div></div></td></tr></table></div></td></tr><tr><td style="font-weight:bold;vertical-align:top;">session_id_website</td><td style="vertical-align:top;">:</td><td><div>127.0.0.1-ab93794b-e6e7-42a8-82c1-b9d68a0e366e<table><tr><td style="font-weight:bold;vertical-align:top;">comment</td><td style="vertical-align:top;">:</td><td><div></div></td></tr><tr><td style="font-weight:bold;vertical-align:top;">domain</td><td style="vertical-align:top;">:</td><td><div></div></td></tr><tr><td style="font-weight:bold;vertical-align:top;">expires</td><td style="vertical-align:top;">:</td><td><div></div></td></tr><tr><td style="font-weight:bold;vertical-align:top;">httponly</td><td style="vertical-align:top;">:</td><td><div></div></td></tr><tr><td style="font-weight:bold;vertical-align:top;">max-age</td><td style="vertical-align:top;">:</td><td><div></div></td></tr><tr><td style="font-weight:bold;vertical-align:top;">path</td><td style="vertical-align:top;">:</td><td><div></div></td></tr><tr><td style="font-weight:bold;vertical-align:top;">secure</td><td style="vertical-align:top;">:</td><td><div></div></td></tr><tr><td style="font-weight:bold;vertical-align:top;">version</td><td style="vertical-align:top;">:</td><td><div></div></td></tr></table></div></td></tr><tr><td style="font-weight:bold;vertical-align:top;">session_id_welcome</td><td style="vertical-align:top;">:</td><td><div>127.0.0.1-fcd04e0f-fc1f-4c9b-8e11-7aab9465bb77<table><tr><td style="font-weight:bold;vertical-align:top;">comment</td><td style="vertical-align:top;">:</td><td><div></div></td></tr><tr><td style="font-weight:bold;vertical-align:top;">domain</td><td style="vertical-align:top;">:</td><td><div></div></td></tr><tr><td style="font-weight:bold;vertical-align:top;">expires</td><td style="vertical-align:top;">:</td><td><div></div></td></tr><tr><td style="font-weight:bold;vertical-align:top;">httponly</td><td style="vertical-align:top;">:</td><td><div></div></td></tr><tr><td style="font-weight:bold;vertical-align:top;">max-age</td><td style="vertical-align:top;">:</td><td><div></div></td></tr><tr><td style="font-weight:bold;vertical-align:top;">path</td><td style="vertical-align:top;">:</td><td><div></div></td></tr><tr><td style="font-weight:bold;vertical-align:top;">secure</td><td style="vertical-align:top;">:</td><td><div></div></td></tr><tr><td style="font-weight:bold;vertical-align:top;">version</td><td style="vertical-align:top;">:</td><td><div></div></td></tr></table></div></td></tr></table></div></td></tr><tr><td style="font-weight:bold;vertical-align:top;">env</td><td style="vertical-align:top;">:</td><td><div><table><tr><td style="font-weight:bold;vertical-align:top;">HTTP_ACCEPT</td><td style="vertical-align:top;">:</td><td><div>text/html,application/xhtml+xml,application/xml;q=0.9,image/webp,*/*;q=0.8</div></td></tr><tr><td style="font-weight:bold;vertical-align:top;">HTTP_ACCEPT_ENCODING</td><td style="vertical-align:top;">:</td><td><div>gzip, deflate, sdch, br</div></td></tr><tr><td style="font-weight:bold;vertical-align:top;">HTTP_ACCEPT_LANGUAGE</td><td style="vertical-align:top;">:</td><td><div>pt-BR,pt;q=0.8,en-US;q=0.6,en;q=0.4</div></td></tr><tr><td style="font-weight:bold;vertical-align:top;">HTTP_CACHE_CONTROL</td><td style="vertical-align:top;">:</td><td><div>max-age=0</div></td></tr><tr><td style="font-weight:bold;vertical-align:top;">HTTP_CONNECTION</td><td style="vertical-align:top;">:</td><td><div>keep-alive</div></td></tr><tr><td style="font-weight:bold;vertical-align:top;">HTTP_COOKIE</td><td style="vertical-align:top;">:</td><td><div>csrftoken=zUg0GfSOAJg9xFGMkkpYCcLbsMDDmksZypHQYZlWDPcYDxYsDIZ6Oj6pyzFFSO35; session_id_website=127.0.0.1-ab93794b-e6e7-42a8-82c1-b9d68a0e366e; session_id_utils=127.0.0.1-0f7f3c0a-723d-47c4-b18d-6bc22ca71e56; session_id_torneio=127.0.0.1-74758298-090c-41ad-907d-48244dffe4e2; session_id_fest=127.0.0.1-4b8cdaae-665f-4809-884f-39605a9c7e9b; session_id_welcome=127.0.0.1-fcd04e0f-fc1f-4c9b-8e11-7aab9465bb77; session_id_combo=127.0.0.1-474e54f7-72ed-4ec2-9537-256bfaaedfe0; session_id_admin=127.0.0.1-94762b97-b3f4-42fb-a365-c24f4bf3b5ed; session_id_plano_de_acao=127.0.0.1-6f549c8e-0e30-48f6-a03c-84706719cfad</div></td></tr><tr><td style="font-weight:bold;vertical-align:top;">HTTP_HOST</td><td style="vertical-align:top;">:</td><td><div>localhost:8000</div></td></tr><tr><td style="font-weight:bold;vertical-align:top;">HTTP_UPGRADE_INSECURE_REQUESTS</td><td style="vertical-align:top;">:</td><td><div>1</div></td></tr><tr><td style="font-weight:bold;vertical-align:top;">HTTP_USER_AGENT</td><td style="vertical-align:top;">:</td><td><div>Mozilla/5.0 (X11; Linux x86_64) AppleWebKit/537.36 (KHTML, like Gecko) Chrome/56.0.2924.87 Safari/537.36</div></td></tr><tr><td style="font-weight:bold;vertical-align:top;">PATH_INFO</td><td style="vertical-align:top;">:</td><td><div>/plano_de_acao/</div></td></tr><tr><td style="font-weight:bold;vertical-align:top;">QUERY_STRING</td><td style="vertical-align:top;">:</td><td><div></div></td></tr><tr><td style="font-weight:bold;vertical-align:top;">REMOTE_ADDR</td><td style="vertical-align:top;">:</td><td><div>127.0.0.1</div></td></tr><tr><td style="font-weight:bold;vertical-align:top;">REMOTE_PORT</td><td style="vertical-align:top;">:</td><td><div>45406</div></td></tr><tr><td style="font-weight:bold;vertical-align:top;">REQUEST_METHOD</td><td style="vertical-align:top;">:</td><td><div>GET</div></td></tr><tr><td style="font-weight:bold;vertical-align:top;">SCRIPT_NAME</td><td style="vertical-align:top;">:</td><td><div></div></td></tr><tr><td style="font-weight:bold;vertical-align:top;">SERVER_NAME</td><td style="vertical-align:top;">:</td><td><div>amauri-note</div></td></tr><tr><td style="font-weight:bold;vertical-align:top;">SERVER_PORT</td><td style="vertical-align:top;">:</td><td><div>8000</div></td></tr><tr><td style="font-weight:bold;vertical-align:top;">SERVER_PROTOCOL</td><td style="vertical-align:top;">:</td><td><div>HTTP/1.1</div></td></tr><tr><td style="font-weight:bold;vertical-align:top;">SERVER_SOFTWARE</td><td style="vertical-align:top;">:</td><td><div>Rocket 1.2.6</div></td></tr><tr><td style="font-weight:bold;vertical-align:top;">app_folders</td><td style="vertical-align:top;">:</td><td><div>set([&#x27;/home/amauri/web2py/applications/plano_de_acao/&#x27;, &#x27;/home/amauri/web2py/applications/admin/&#x27;, &#x27;/home/amauri/web2py/applications/welcome/&#x27;])</div></td></tr><tr><td style="font-weight:bold;vertical-align:top;">applications_parent</td><td style="vertical-align:top;">:</td><td><div>/home/amauri/web2py</div></td></tr><tr><td style="font-weight:bold;vertical-align:top;">cmd_args</td><td style="vertical-align:top;">:</td><td><div><table></table></div></td></tr><tr><td style="font-weight:bold;vertical-align:top;">cmd_options</td><td style="vertical-align:top;">:</td><td><div>&lt;Values at 0x7f4da8cf58c0: {&#x27;verbose&#x27;: False, &#x27;ip&#x27;: &#x27;127.0.0.1&#x27;, &#x27;debuglevel&#x27;: 30, &#x27;with_scheduler&#x27;: False, &#x27;shutdown_timeout&#x27;: 5, &#x27;taskbar&#x27;: False, &#x27;with_coverage&#x27;: False, &#x27;pid_filename&#x27;: &#x27;httpserver.pid&#x27;, &#x27;maxthreads&#x27;: None, &#x27;softcron&#x27;: False, &#x27;server_name&#x27;: &#x27;amauri-note&#x27;, &#x27;bpython&#x27;: False, &#x27;nogui&#x27;: False, &#x27;port&#x27;: 8000, &#x27;print_errors&#x27;: False, &#x27;extcron&#x27;: False, &#x27;runcron&#x27;: False, &#x27;run_system_tests&#x27;: False, &#x27;test&#x27;: None, &#x27;folder&#x27;: &#x27;/home/amauri/web2py&#x27;, &#x27;config&#x27;: &#x27;&#x27;, &#x27;minthreads&#x27;: None, &#x27;shell&#x27;: None, &#x27;run&#x27;: &#x27;&#x27;, &#x27;log_filename&#x27;: &#x27;httpserver.log&#x27;, &#x27;profiler_dir&#x27;: None, &#x27;args&#x27;: [&#x27;&#x27;], &#x27;socket_timeout&#x27;: 5, &#x27;ssl_ca_certificate&#x27;: None, &#x27;scheduler&#x27;: None, &#x27;interfaces&#x27;: None, &#x27;ssl_private_key&#x27;: &#x27;&#x27;, &#x27;gae&#x27;: None, &#x27;password&#x27;: &#x27;******&#x27;, &#x27;request_queue_size&#x27;: 5, &#x27;ssl_certificate&#x27;: &#x27;&#x27;, &#x27;cronjob&#x27;: False, &#x27;numthreads&#x27;: None, &#x27;quiet&#x27;: False, &#x27;import_models&#x27;: False, &#x27;timeout&#x27;: 10, &#x27;plain&#x27;: False, &#x27;nobanner&#x27;: False}&gt;</div></td></tr><tr><td style="font-weight:bold;vertical-align:top;">db_sessions</td><td style="vertical-align:top;">:</td><td><div>set([])</div></td></tr><tr><td style="font-weight:bold;vertical-align:top;">debugging</td><td style="vertical-align:top;">:</td><td><div>False</div></td></tr><tr><td style="font-weight:bold;vertical-align:top;">gluon_parent</td><td style="vertical-align:top;">:</td><td><div>/home/amauri/web2py</div></td></tr><tr><td style="font-weight:bold;vertical-align:top;">http_accept</td><td style="vertical-align:top;">:</td><td><div>text/html,application/xhtml+xml,application/xml;q=0.9,image/webp,*/*;q=0.8</div></td></tr><tr><td style="font-weight:bold;vertical-align:top;">http_accept_encoding</td><td style="vertical-align:top;">:</td><td><div>gzip, deflate, sdch, br</div></td></tr><tr><td style="font-weight:bold;vertical-align:top;">http_accept_language</td><td style="vertical-align:top;">:</td><td><div>pt-BR,pt;q=0.8,en-US;q=0.6,en;q=0.4</div></td></tr><tr><td style="font-weight:bold;vertical-align:top;">http_cache_control</td><td style="vertical-align:top;">:</td><td><div>max-age=0</div></td></tr><tr><td style="font-weight:bold;vertical-align:top;">http_connection</td><td style="vertical-align:top;">:</td><td><div>keep-alive</div></td></tr><tr><td style="font-weight:bold;vertical-align:top;">http_cookie</td><td style="vertical-align:top;">:</td><td><div>csrftoken=zUg0GfSOAJg9xFGMkkpYCcLbsMDDmksZypHQYZlWDPcYDxYsDIZ6Oj6pyzFFSO35; session_id_website=127.0.0.1-ab93794b-e6e7-42a8-82c1-b9d68a0e366e; session_id_utils=127.0.0.1-0f7f3c0a-723d-47c4-b18d-6bc22ca71e56; session_id_torneio=127.0.0.1-74758298-090c-41ad-907d-48244dffe4e2; session_id_fest=127.0.0.1-4b8cdaae-665f-4809-884f-39605a9c7e9b; session_id_welcome=127.0.0.1-fcd04e0f-fc1f-4c9b-8e11-7aab9465bb77; session_id_combo=127.0.0.1-474e54f7-72ed-4ec2-9537-256bfaaedfe0; session_id_admin=127.0.0.1-94762b97-b3f4-42fb-a365-c24f4bf3b5ed; session_id_plano_de_acao=127.0.0.1-6f549c8e-0e30-48f6-a03c-84706719cfad</div></td></tr><tr><td style="font-weight:bold;vertical-align:top;">http_host</td><td style="vertical-align:top;">:</td><td><div>localhost:8000</div></td></tr><tr><td style="font-weight:bold;vertical-align:top;">http_upgrade_insecure_requests</td><td style="vertical-align:top;">:</td><td><div>1</div></td></tr><tr><td style="font-weight:bold;vertical-align:top;">http_user_agent</td><td style="vertical-align:top;">:</td><td><div>Mozilla/5.0 (X11; Linux x86_64) AppleWebKit/537.36 (KHTML, like Gecko) Chrome/56.0.2924.87 Safari/537.36</div></td></tr><tr><td style="font-weight:bold;vertical-align:top;">is_jython</td><td style="vertical-align:top;">:</td><td><div>False</div></td></tr><tr><td style="font-weight:bold;vertical-align:top;">is_pypy</td><td style="vertical-align:top;">:</td><td><div>False</div></td></tr><tr><td style="font-weight:bold;vertical-align:top;">is_source</td><td style="vertical-align:top;">:</td><td><div>True</div></td></tr><tr><td style="font-weight:bold;vertical-align:top;">local_hosts</td><td style="vertical-align:top;">:</td><td><div><table><tr><td><div>127.0.1.1</div></td></tr><tr><td><div>::1</div></td></tr><tr><td><div>amauri-note</div></td></tr><tr><td><div>::ffff:127.0.0.1</div></td></tr><tr><td><div>127.0.0.1</div></td></tr></table></div></td></tr><tr><td style="font-weight:bold;vertical-align:top;">path_info</td><td style="vertical-align:top;">:</td><td><div>/plano_de_acao/</div></td></tr><tr><td style="font-weight:bold;vertical-align:top;">query_string</td><td style="vertical-align:top;">:</td><td><div></div></td></tr><tr><td style="font-weight:bold;vertical-align:top;">remote_addr</td><td style="vertical-align:top;">:</td><td><div>127.0.0.1</div></td></tr><tr><td style="font-weight:bold;vertical-align:top;">remote_port</td><td style="vertical-align:top;">:</td><td><div>45406</div></td></tr><tr><td style="font-weight:bold;vertical-align:top;">request_method</td><td style="vertical-align:top;">:</td><td><div>GET</div></td></tr><tr><td style="font-weight:bold;vertical-align:top;">request_uri</td><td style="vertical-align:top;">:</td><td><div>/plano_de_acao/</div></td></tr><tr><td style="font-weight:bold;vertical-align:top;">script_name</td><td style="vertical-align:top;">:</td><td><div></div></td></tr><tr><td style="font-weight:bold;vertical-align:top;">server_name</td><td style="vertical-align:top;">:</td><td><div>amauri-note</div></td></tr><tr><td style="font-weight:bold;vertical-align:top;">server_port</td><td style="vertical-align:top;">:</td><td><div>8000</div></td></tr><tr><td style="font-weight:bold;vertical-align:top;">server_protocol</td><td style="vertical-align:top;">:</td><td><div>HTTP/1.1</div></td></tr><tr><td style="font-weight:bold;vertical-align:top;">server_software</td><td style="vertical-align:top;">:</td><td><div>Rocket 1.2.6</div></td></tr><tr><td style="font-weight:bold;vertical-align:top;">web2py_path</td><td style="vertical-align:top;">:</td><td><div>/home/amauri/web2py</div></td></tr><tr><td style="font-weight:bold;vertical-align:top;">web2py_version</td><td style="vertical-align:top;">:</td><td><div>2.14.6-stable+timestamp.2016.05.10.00.21.47</div></td></tr><tr><td style="font-weight:bold;vertical-align:top;">wsgi.errors</td><td style="vertical-align:top;">:</td><td><div>&lt;open file &#x27;&lt;stderr&gt;&#x27;, mode &#x27;w&#x27; at 0x7f4db3fcb1e0&gt;</div></td></tr><tr><td style="font-weight:bold;vertical-align:top;">wsgi.file_wrapper</td><td style="vertical-align:top;">:</td><td><div>&lt;class wsgiref.util.FileWrapper at 0x7f4da8d2b120&gt;</div></td></tr><tr><td style="font-weight:bold;vertical-align:top;">wsgi.input</td><td style="vertical-align:top;">:</td><td><div>&lt;socket._fileobject object at 0x7f4da417b0d0&gt;</div></td></tr><tr><td style="font-weight:bold;vertical-align:top;">wsgi.multiprocess</td><td style="vertical-align:top;">:</td><td><div>False</div></td></tr><tr><td style="font-weight:bold;vertical-align:top;">wsgi.multithread</td><td style="vertical-align:top;">:</td><td><div>True</div></td></tr><tr><td style="font-weight:bold;vertical-align:top;">wsgi.run_once</td><td style="vertical-align:top;">:</td><td><div>False</div></td></tr><tr><td style="font-weight:bold;vertical-align:top;">wsgi.url_scheme</td><td style="vertical-align:top;">:</td><td><div>http</div></td></tr><tr><td style="font-weight:bold;vertical-align:top;">wsgi.version</td><td style="vertical-align:top;">:</td><td><div><table><tr><td><div>1</div></td></tr><tr><td><div>0</div></td></tr></table></div></td></tr><tr><td style="font-weight:bold;vertical-align:top;">wsgi_errors</td><td style="vertical-align:top;">:</td><td><div>&lt;open file &#x27;&lt;stderr&gt;&#x27;, mode &#x27;w&#x27; at 0x7f4db3fcb1e0&gt;</div></td></tr><tr><td style="font-weight:bold;vertical-align:top;">wsgi_file_wrapper</td><td style="vertical-align:top;">:</td><td><div>&lt;class wsgiref.util.FileWrapper at 0x7f4da8d2b120&gt;</div></td></tr><tr><td style="font-weight:bold;vertical-align:top;">wsgi_input</td><td style="vertical-align:top;">:</td><td><div>&lt;socket._fileobject object at 0x7f4da417b0d0&gt;</div></td></tr><tr><td style="font-weight:bold;vertical-align:top;">wsgi_multiprocess</td><td style="vertical-align:top;">:</td><td><div>False</div></td></tr><tr><td style="font-weight:bold;vertical-align:top;">wsgi_multithread</td><td style="vertical-align:top;">:</td><td><div>True</div></td></tr><tr><td style="font-weight:bold;vertical-align:top;">wsgi_run_once</td><td style="vertical-align:top;">:</td><td><div>False</div></td></tr><tr><td style="font-weight:bold;vertical-align:top;">wsgi_url_scheme</td><td style="vertical-align:top;">:</td><td><div>http</div></td></tr><tr><td style="font-weight:bold;vertical-align:top;">wsgi_version</td><td style="vertical-align:top;">:</td><td><div><table><tr><td><div>1</div></td></tr><tr><td><div>0</div></td></tr></table></div></td></tr></table></div></td></tr><tr><td style="font-weight:bold;vertical-align:top;">extension</td><td style="vertical-align:top;">:</td><td><div>html</div></td></tr><tr><td style="font-weight:bold;vertical-align:top;">folder</td><td style="vertical-align:top;">:</td><td><div>/home/amauri/web2py/applications/plano_de_acao/</div></td></tr><tr><td style="font-weight:bold;vertical-align:top;">function</td><td style="vertical-align:top;">:</td><td><div>index</div></td></tr><tr><td style="font-weight:bold;vertical-align:top;">global_settings</td><td style="vertical-align:top;">:</td><td><div><table><tr><td style="font-weight:bold;vertical-align:top;">app_folders</td><td style="vertical-align:top;">:</td><td><div>set([&#x27;/home/amauri/web2py/applications/plano_de_acao/&#x27;, &#x27;/home/amauri/web2py/applications/admin/&#x27;, &#x27;/home/amauri/web2py/applications/welcome/&#x27;])</div></td></tr><tr><td style="font-weight:bold;vertical-align:top;">applications_parent</td><td style="vertical-align:top;">:</td><td><div>/home/amauri/web2py</div></td></tr><tr><td style="font-weight:bold;vertical-align:top;">cmd_args</td><td style="vertical-align:top;">:</td><td><div><table></table></div></td></tr><tr><td style="font-weight:bold;vertical-align:top;">cmd_options</td><td style="vertical-align:top;">:</td><td><div>&lt;Values at 0x7f4da8cf58c0: {&#x27;verbose&#x27;: False, &#x27;ip&#x27;: &#x27;127.0.0.1&#x27;, &#x27;debuglevel&#x27;: 30, &#x27;with_scheduler&#x27;: False, &#x27;shutdown_timeout&#x27;: 5, &#x27;taskbar&#x27;: False, &#x27;with_coverage&#x27;: False, &#x27;pid_filename&#x27;: &#x27;httpserver.pid&#x27;, &#x27;maxthreads&#x27;: None, &#x27;softcron&#x27;: False, &#x27;server_name&#x27;: &#x27;amauri-note&#x27;, &#x27;bpython&#x27;: False, &#x27;nogui&#x27;: False, &#x27;port&#x27;: 8000, &#x27;print_errors&#x27;: False, &#x27;extcron&#x27;: False, &#x27;runcron&#x27;: False, &#x27;run_system_tests&#x27;: False, &#x27;test&#x27;: None, &#x27;folder&#x27;: &#x27;/home/amauri/web2py&#x27;, &#x27;config&#x27;: &#x27;&#x27;, &#x27;minthreads&#x27;: None, &#x27;shell&#x27;: None, &#x27;run&#x27;: &#x27;&#x27;, &#x27;log_filename&#x27;: &#x27;httpserver.log&#x27;, &#x27;profiler_dir&#x27;: None, &#x27;args&#x27;: [&#x27;&#x27;], &#x27;socket_timeout&#x27;: 5, &#x27;ssl_ca_certificate&#x27;: None, &#x27;scheduler&#x27;: None, &#x27;interfaces&#x27;: None, &#x27;ssl_private_key&#x27;: &#x27;&#x27;, &#x27;gae&#x27;: None, &#x27;password&#x27;: &#x27;******&#x27;, &#x27;request_queue_size&#x27;: 5, &#x27;ssl_certificate&#x27;: &#x27;&#x27;, &#x27;cronjob&#x27;: False, &#x27;numthreads&#x27;: None, &#x27;quiet&#x27;: False, &#x27;import_models&#x27;: False, &#x27;timeout&#x27;: 10, &#x27;plain&#x27;: False, &#x27;nobanner&#x27;: False}&gt;</div></td></tr><tr><td style="font-weight:bold;vertical-align:top;">db_sessions</td><td style="vertical-align:top;">:</td><td><div>set([])</div></td></tr><tr><td style="font-weight:bold;vertical-align:top;">debugging</td><td style="vertical-align:top;">:</td><td><div>False</div></td></tr><tr><td style="font-weight:bold;vertical-align:top;">gluon_parent</td><td style="vertical-align:top;">:</td><td><div>/home/amauri/web2py</div></td></tr><tr><td style="font-weight:bold;vertical-align:top;">is_jython</td><td style="vertical-align:top;">:</td><td><div>False</div></td></tr><tr><td style="font-weight:bold;vertical-align:top;">is_pypy</td><td style="vertical-align:top;">:</td><td><div>False</div></td></tr><tr><td style="font-weight:bold;vertical-align:top;">is_source</td><td style="vertical-align:top;">:</td><td><div>True</div></td></tr><tr><td style="font-weight:bold;vertical-align:top;">local_hosts</td><td style="vertical-align:top;">:</td><td><div><table><tr><td><div>127.0.1.1</div></td></tr><tr><td><div>::1</div></td></tr><tr><td><div>amauri-note</div></td></tr><tr><td><div>::ffff:127.0.0.1</div></td></tr><tr><td><div>127.0.0.1</div></td></tr></table></div></td></tr><tr><td style="font-weight:bold;vertical-align:top;">web2py_version</td><td style="vertical-align:top;">:</td><td><div>2.14.6-stable+timestamp.2016.05.10.00.21.47</div></td></tr></table></div></td></tr><tr><td style="font-weight:bold;vertical-align:top;">is_https</td><td style="vertical-align:top;">:</td><td><div>False</div></td></tr><tr><td style="font-weight:bold;vertical-align:top;">is_local</td><td style="vertical-align:top;">:</td><td><div>True</div></td></tr><tr><td style="font-weight:bold;vertical-align:top;">is_restful</td><td style="vertical-align:top;">:</td><td><div>False</div></td></tr><tr><td style="font-weight:bold;vertical-align:top;">is_scheduler</td><td style="vertical-align:top;">:</td><td><div>False</div></td></tr><tr><td style="font-weight:bold;vertical-align:top;">is_shell</td><td style="vertical-align:top;">:</td><td><div>False</div></td></tr><tr><td style="font-weight:bold;vertical-align:top;">now</td><td style="vertical-align:top;">:</td><td><div>datetime.datetime(2017, 3, 5, 12, 42, 52, 158244)</div></td></tr><tr><td style="font-weight:bold;vertical-align:top;">raw_args</td><td style="vertical-align:top;">:</td><td><div></div></td></tr><tr><td style="font-weight:bold;vertical-align:top;">raw_extension</td><td style="vertical-align:top;">:</td><td><div>None</div></td></tr><tr><td style="font-weight:bold;vertical-align:top;">url</td><td style="vertical-align:top;">:</td><td><div>/plano_de_acao/</div></td></tr><tr><td style="font-weight:bold;vertical-align:top;">utcnow</td><td style="vertical-align:top;">:</td><td><div>datetime.datetime(2017, 3, 5, 15, 42, 52, 158289)</div></td></tr><tr><td style="font-weight:bold;vertical-align:top;">wsgi</td><td style="vertical-align:top;">:</td><td><div>&lt;gluon.main.LazyWSGI object at 0x7f4d6a14c0d0&gt;</div></td></tr></table></div>'
tRp58
sS'frames'
p59
(lp60
(dp61
S'file'
p62
S'/home/amauri/web2py/gluon/restricted.py'
p63
sS'dump'
p64
(dp65
S'environment'
p66
S"{'A': <class 'gluon.html.A'>, 'ANY_OF': <class 'gluon.validators.ANY_OF'>, 'ASSIGNJS': <function ASSIGNJS>, 'AppConfig': <function AppConfig>, 'Auth': <class 'gluon.tools.Auth'>, 'B': <class 'gluon.html.B'>, 'BEAUTIFY': <class 'gluon.html.BEAUTIFY'>, 'BODY': <class 'gluon.html.BODY'>, 'BR': <class 'gluon.html.BR'>, 'BUTTON': <class 'gluon.html.BUTTON'>, ...}"
p67
sS'ccode'
p68
S'<code object <module> at 0x7f4da45369b0, file "/.../plano_de_acao/views/default/index.html", line 1>'
p69
ssS'lnum'
p70
I227
sS'lines'
p71
(dp72
I224
S'            ccode = code'
p73
sI225
S'        else:'
p74
sI226
S'            ccode = compile2(code, layer)'
p75
sI227
S'        exec ccode in environment'
p76
sI228
S'    except HTTP:'
p77
sI229
S'        raise'
p78
sI230
S'    except RestrictedError:'
p79
sI231
S'        # do not encapsulate (obfuscate) the original RestrictedError'
p80
sI222
S'    try:'
p81
sI223
S'        if isinstance(code, types.CodeType):'
p82
ssS'call'
p83
S'(code=r"response.write(\'<!DOCTYPE html>\\n<!--[if (gt IE ...</script>\\n\\n  </body>\\n</html>\\n\', escape=False)", environment={\'A\': <class \'gluon.html.A\'>, \'ANY_OF\': <class \'gluon.validators.ANY_OF\'>, \'ASSIGNJS\': <function ASSIGNJS>, \'AppConfig\': <function AppConfig>, \'Auth\': <class \'gluon.tools.Auth\'>, \'B\': <class \'gluon.html.B\'>, \'BEAUTIFY\': <class \'gluon.html.BEAUTIFY\'>, \'BODY\': <class \'gluon.html.BODY\'>, \'BR\': <class \'gluon.html.BR\'>, \'BUTTON\': <class \'gluon.html.BUTTON\'>, ...}, layer=\'/home/amauri/web2py/applications/plano_de_acao/views/default/index.html\')'
p84
sS'func'
p85
S'restricted'
p86
sa(dp87
g62
S'/home/amauri/web2py/applications/plano_de_acao/views/default/index.html'
p88
sg64
(dp89
S'th'
p90
S'undefined'
p91
sS'NOME'
p92
g91
ssg70
I227
sg71
(dp93
I224
S'response.write(\'\\n\\n\\n\\n\\n<table id="myTable" class="tablesorter"> \\n<thead> \\n<tr> \\n    <th>Last Name</th> \\n    <th>First Name</th> \\n    <th>Email</th> \\n    <th>Due</th> \\n    <th>Web Site</th> \\n</tr> \\n</thead> \\n<tbody> \\n<tr> \\n    <td>Smith</td> \\n    <td>John</td> \\n    <td>jsmith@gmail.com</td> \\n    <td>$50.00</td> \\n    <td>http://www.jsmith.com</td> \\n</tr> \\n<tr> \\n    <td>Bach</td> \\n    <td>Frank</td> \\n    <td>fbach@yahoo.com</td> \\n    <td>$50.00</td> \\n    <td>http://www.frank.com</td> \\n</tr> \\n<tr> \\n    <td>Doe</td> \\n    <td>Jason</td> \\n    <td>jdoe@hotmail.com</td> \\n    <td>$100.00</td> \\n    <td>http://www.jdoe.com</td> \\n</tr> \\n<tr> \\n    <td>Conway</td> \\n    <td>Tim</td> \\n    <td>tconway@earthlink.net</td> \\n    <td>$50.00</td> \\n    <td>http://www.timconway.com</td> \\n</tr> \\n</tbody> \\n</table> \\n\\n\\n<table class="tablesorter">\\n\\t<thead>\\n\\t\\t<tr>\\n\\t\\t<th>NOME</th>\\n\\t\\t<th>SOBRENOME</th>\\n\\t\\t<th>IDADE</th>\\n\\t\\t</tr>\\n\\t</thead>\\n\\t<tbody>\\n\\t\\t<tr>\\n\\t\\t\\t<td>Amauri</td>\\n\\t\\t\\t<td>Rossetti</td>\\n\\t\\t\\t<td>42</td>\\n\\t\\t</tr>\\n\\t\\t<tr>\\n\\t\\t\\t<td>Ana Paula</td>\\n\\t\\t\\t<td>Santos</td>\\n\\t\\t\\t<td>43</td>\\n\\t\\t</tr>\\n\\t\\t<tr>\\n\\t\\t\\t<td>Fernanda</td>\\n\\t\\t\\t<td>Giovani</td>\\n\\t\\t\\t<td>14</td>\\n\\t\\t</tr>\\n\\t</tbody>\\n</table>\\n\\n\\n\\n\\n<table class="tablesorter table table-hover">\\n<thead>\\n\\t<tr>\\n\\t\\t<th>N\\xc3\\xbameros</th>\\n\\t</tr>\\n</thead>\\n\\t\\n<tbody>\\n\\t\', escape=False)'
p94
sI225
S'for i in planos:'
p95
sI226
S"    response.write('\\n\\t<tr>\\n\\t\\t<td>', escape=False)"
p96
sI227
S"    response.write('%(setor)s' %(i.prazo))"
p97
sI228
S"    response.write('</td>\\n\\t</tr>\\n\\t', escape=False)"
p98
sI229
S'    pass'
p99
sI230
S'response.write(\'\\n</tbody>\\n\\n</table>\\n\\n<!--     <script type="text/javascript" src="\', escape=False)'
p100
sI231
S"response.write(URL('static','js/jquery-latest.js'))"
p101
sI232
S'response.write(\'"></script>\\n    <script type="text/javascript" src="\', escape=False)'
p102
sI233
S"response.write(URL('static','js/jquery.tablesorter.min.js'))"
p103
sI234
S'response.write(\'"></script>\\n -->\\n<!-- \\n<script type="text/javascript">\\n    $(document).ready(function() \\n        { \\n            $(".tablesorter").tablesorter(); \\n        } \\n    ); \\n</script>\\n -->\', escape=False)'
p104
sI235
S"response.write('\\n        ', escape=False)"
p105
sI236
S"response.write('\\n      </div>\\n\\n      ', escape=False)"
p106
sI237
S'if right_sidebar_enabled:'
p107
sI218
S'response.write(\'\\n\\t\\t</div>\\n\\t</div>\\n</div>\\n\\n<!-- <a href="\', escape=False)'
p108
sI219
S"response.write(URL('novo_plano'))"
p109
sI220
S'response.write(\'" class="btn btn-primary">Criar novo plano</a> -->\\n\\n\', escape=False)'
p110
sI221
S'if form.errors:'
p111
sI222
S'    response.write(\'\\n<script type="text/javascript">\\n\\t$(\\\'#planos\\\').toggleClass("active");\\n  \\t$(\\\'#novo_plano\\\').toggleClass("active");\\n  \\t$(\\\'#li-planos\\\').toggleClass("active");\\n  \\t$(\\\'#li-novo_plano\\\').toggleClass("active");\\n </script>\\n\', escape=False)'
p112
sI223
S'    pass'
p113
ssg83
S'()'
p114
sg85
S'<module>'
p115
sasS'pyver'
p116
S'Python 2.7.12: /usr/bin/python (prefix: /usr)'
p117
sS'session'
p118
g57
(S's6\x01\x00\x00<div><table><tr><td style="font-weight:bold;vertical-align:top;">last_orderby</td><td style="vertical-align:top;">:</td><td><div>None</div></td></tr><tr><td style="font-weight:bold;vertical-align:top;">last_query</td><td style="vertical-align:top;">:</td><td><div>db.plano.id&gt;0</div></td></tr></table></div>'
tRp119
sS'etype'
p120
S"<type 'exceptions.TypeError'>"
p121
sS'date'
p122
S'Sun Mar  5 12:42:52 2017'
p123
sS'response'
p124
g57
(S's)A\x00\x00<div><table><tr><td style="font-weight:bold;vertical-align:top;">body</td><td style="vertical-align:top;">:</td><td><div>&lt;cStringIO.StringO object at 0x7f4da418e4c8&gt;</div></td></tr><tr><td style="font-weight:bold;vertical-align:top;">cookies</td><td style="vertical-align:top;">:</td><td><div><table><tr><td style="font-weight:bold;vertical-align:top;">session_id_plano_de_acao</td><td style="vertical-align:top;">:</td><td><div>127.0.0.1-6f549c8e-0e30-48f6-a03c-84706719cfad<table><tr><td style="font-weight:bold;vertical-align:top;">comment</td><td style="vertical-align:top;">:</td><td><div></div></td></tr><tr><td style="font-weight:bold;vertical-align:top;">domain</td><td style="vertical-align:top;">:</td><td><div></div></td></tr><tr><td style="font-weight:bold;vertical-align:top;">expires</td><td style="vertical-align:top;">:</td><td><div></div></td></tr><tr><td style="font-weight:bold;vertical-align:top;">httponly</td><td style="vertical-align:top;">:</td><td><div></div></td></tr><tr><td style="font-weight:bold;vertical-align:top;">max-age</td><td style="vertical-align:top;">:</td><td><div></div></td></tr><tr><td style="font-weight:bold;vertical-align:top;">path</td><td style="vertical-align:top;">:</td><td><div>/</div></td></tr><tr><td style="font-weight:bold;vertical-align:top;">secure</td><td style="vertical-align:top;">:</td><td><div></div></td></tr><tr><td style="font-weight:bold;vertical-align:top;">version</td><td style="vertical-align:top;">:</td><td><div></div></td></tr></table></div></td></tr></table></div></td></tr><tr><td style="font-weight:bold;vertical-align:top;">delimiters</td><td style="vertical-align:top;">:</td><td><div><table><tr><td><div>{{</div></td></tr><tr><td><div>}}</div></td></tr></table></div></td></tr><tr><td style="font-weight:bold;vertical-align:top;">files</td><td style="vertical-align:top;">:</td><td><div><table><tr><td><div>/plano_de_acao/static/js/jquery.js</div></td></tr><tr><td><div>/plano_de_acao/static/css/calendar.css</div></td></tr><tr><td><div>/plano_de_acao/static/js/calendar.js</div></td></tr><tr><td><div>/plano_de_acao/static/js/web2py.js</div></td></tr></table></div></td></tr><tr><td style="font-weight:bold;vertical-align:top;">flash</td><td style="vertical-align:top;">:</td><td><div></div></td></tr><tr><td style="font-weight:bold;vertical-align:top;">form_label_separator</td><td style="vertical-align:top;">:</td><td><div></div></td></tr><tr><td style="font-weight:bold;vertical-align:top;">formstyle</td><td style="vertical-align:top;">:</td><td><div>bootstrap3_inline</div></td></tr><tr><td style="font-weight:bold;vertical-align:top;">generic_patterns</td><td style="vertical-align:top;">:</td><td><div><table><tr><td><div>*</div></td></tr></table></div></td></tr><tr><td style="font-weight:bold;vertical-align:top;">google_analytics_id</td><td style="vertical-align:top;">:</td><td><div>None</div></td></tr><tr><td style="font-weight:bold;vertical-align:top;">headers</td><td style="vertical-align:top;">:</td><td><div><table><tr><td style="font-weight:bold;vertical-align:top;">X-Powered-By</td><td style="vertical-align:top;">:</td><td><div>web2py</div></td></tr></table></div></td></tr><tr><td style="font-weight:bold;vertical-align:top;">logo</td><td style="vertical-align:top;">:</td><td><div><a class="navbar-brand" href="http://www.web2py.com/" id="web2py-logo"><b>web<span>2</span>py</b>&trade;&nbsp;</a></div></td></tr><tr><td style="font-weight:bold;vertical-align:top;">menu</td><td style="vertical-align:top;">:</td><td><div><table><tr><td><div><table><tr><td><div>Principal</div></td></tr><tr><td><div>False</div></td></tr><tr><td><div>/plano_de_acao/default/index</div></td></tr><tr><td><div><table></table></div></td></tr></table></div></td></tr><tr><td><div><table><tr><td><div>Meus sites</div></td></tr><tr><td><div>False</div></td></tr><tr><td><div>/admin/default/site</div></td></tr></table></div></td></tr><tr><td><div><table><tr><td><div>Esta aplica\xc3\xa7\xc3\xa3o</div></td></tr><tr><td><div>False</div></td></tr><tr><td><div>#</div></td></tr><tr><td><div><table><tr><td><div><table><tr><td><div>Design</div></td></tr><tr><td><div>False</div></td></tr><tr><td><div>/admin/default/design/plano_de_acao</div></td></tr></table></div></td></tr><tr><td><div><li class="divider"></li></div></td></tr><tr><td><div><table><tr><td><div>Controlador</div></td></tr><tr><td><div>False</div></td></tr><tr><td><div>/admin/default/edit/plano_de_acao/controllers/default.py</div></td></tr></table></div></td></tr><tr><td><div><table><tr><td><div>Visualiza\xc3\xa7\xc3\xa3o</div></td></tr><tr><td><div>False</div></td></tr><tr><td><div>/admin/default/edit/plano_de_acao/views/default/index.html</div></td></tr></table></div></td></tr><tr><td><div><table><tr><td><div>Modelo BD</div></td></tr><tr><td><div>False</div></td></tr><tr><td><div>/admin/default/edit/plano_de_acao/models/db.py</div></td></tr></table></div></td></tr><tr><td><div><table><tr><td><div>Modelo de Menu</div></td></tr><tr><td><div>False</div></td></tr><tr><td><div>/admin/default/edit/plano_de_acao/models/menu.py</div></td></tr></table></div></td></tr><tr><td><div><table><tr><td><div>Config.ini</div></td></tr><tr><td><div>False</div></td></tr><tr><td><div>/admin/default/edit/plano_de_acao/private/appconfig.ini</div></td></tr></table></div></td></tr><tr><td><div><table><tr><td><div>Layout</div></td></tr><tr><td><div>False</div></td></tr><tr><td><div>/admin/default/edit/plano_de_acao/views/layout.html</div></td></tr></table></div></td></tr><tr><td><div><table><tr><td><div>Folha de estilo</div></td></tr><tr><td><div>False</div></td></tr><tr><td><div>/admin/default/edit/plano_de_acao/static/css/web2py-bootstrap3.css</div></td></tr></table></div></td></tr><tr><td><div><table><tr><td><div>banco de dados</div></td></tr><tr><td><div>False</div></td></tr><tr><td><div>/plano_de_acao/appadmin/index</div></td></tr></table></div></td></tr><tr><td><div><table><tr><td><div>Erros</div></td></tr><tr><td><div>False</div></td></tr><tr><td><div>/admin/default/errors/plano_de_acao</div></td></tr></table></div></td></tr><tr><td><div><table><tr><td><div>Sobre</div></td></tr><tr><td><div>False</div></td></tr><tr><td><div>/admin/default/about/plano_de_acao</div></td></tr></table></div></td></tr></table></div></td></tr></table></div></td></tr><tr><td><div><table><tr><td><div>web2py.com</div></td></tr><tr><td><div>False</div></td></tr><tr><td><div>#</div></td></tr><tr><td><div><table><tr><td><div><table><tr><td><div>Download</div></td></tr><tr><td><div>False</div></td></tr><tr><td><div>http://www.web2py.com/examples/default/download</div></td></tr></table></div></td></tr><tr><td><div><table><tr><td><div>Suporte</div></td></tr><tr><td><div>False</div></td></tr><tr><td><div>http://www.web2py.com/examples/default/support</div></td></tr></table></div></td></tr><tr><td><div><table><tr><td><div>Demo</div></td></tr><tr><td><div>False</div></td></tr><tr><td><div>http://web2py.com/demo_admin</div></td></tr></table></div></td></tr><tr><td><div><table><tr><td><div>Exemplos r\xc3\xa1pidos</div></td></tr><tr><td><div>False</div></td></tr><tr><td><div>http://web2py.com/examples/default/examples</div></td></tr></table></div></td></tr><tr><td><div><table><tr><td><div>Perguntas frequentes</div></td></tr><tr><td><div>False</div></td></tr><tr><td><div>http://web2py.com/AlterEgo</div></td></tr></table></div></td></tr><tr><td><div><table><tr><td><div>V\xc3\xaddeos</div></td></tr><tr><td><div>False</div></td></tr><tr><td><div>http://www.web2py.com/examples/default/videos/</div></td></tr></table></div></td></tr><tr><td><div><table><tr><td><div>Aplica\xc3\xa7\xc3\xb5es gratuitas</div></td></tr><tr><td><div>False</div></td></tr><tr><td><div>http://web2py.com/appliances</div></td></tr></table></div></td></tr><tr><td><div><table><tr><td><div>Plugins</div></td></tr><tr><td><div>False</div></td></tr><tr><td><div>http://web2py.com/plugins</div></td></tr></table></div></td></tr><tr><td><div><table><tr><td><div>Receitas</div></td></tr><tr><td><div>False</div></td></tr><tr><td><div>http://web2pyslices.com/</div></td></tr></table></div></td></tr></table></div></td></tr></table></div></td></tr><tr><td><div><table><tr><td><div>Documenta\xc3\xa7\xc3\xa3o</div></td></tr><tr><td><div>False</div></td></tr><tr><td><div>#</div></td></tr><tr><td><div><table><tr><td><div><table><tr><td><div>Online book</div></td></tr><tr><td><div>False</div></td></tr><tr><td><div>http://www.web2py.com/book</div></td></tr></table></div></td></tr><tr><td><div><li class="divider"></li></div></td></tr><tr><td><div><table><tr><td><div>Pref\xc3\xa1cio</div></td></tr><tr><td><div>False</div></td></tr><tr><td><div>http://www.web2py.com/book/default/chapter/00</div></td></tr></table></div></td></tr><tr><td><div><table><tr><td><div>Introdu\xc3\xa7\xc3\xa3o</div></td></tr><tr><td><div>False</div></td></tr><tr><td><div>http://www.web2py.com/book/default/chapter/01</div></td></tr></table></div></td></tr><tr><td><div><table><tr><td><div>Python</div></td></tr><tr><td><div>False</div></td></tr><tr><td><div>http://www.web2py.com/book/default/chapter/02</div></td></tr></table></div></td></tr><tr><td><div><table><tr><td><div>Vis\xc3\xa3o Geral</div></td></tr><tr><td><div>False</div></td></tr><tr><td><div>http://www.web2py.com/book/default/chapter/03</div></td></tr></table></div></td></tr><tr><td><div><table><tr><td><div>The Core</div></td></tr><tr><td><div>False</div></td></tr><tr><td><div>http://www.web2py.com/book/default/chapter/04</div></td></tr></table></div></td></tr><tr><td><div><table><tr><td><div>As views</div></td></tr><tr><td><div>False</div></td></tr><tr><td><div>http://www.web2py.com/book/default/chapter/05</div></td></tr></table></div></td></tr><tr><td><div><table><tr><td><div>banco de dados</div></td></tr><tr><td><div>False</div></td></tr><tr><td><div>http://www.web2py.com/book/default/chapter/06</div></td></tr></table></div></td></tr><tr><td><div><table><tr><td><div>Formul\xc3\xa1rios e Validadores</div></td></tr><tr><td><div>False</div></td></tr><tr><td><div>http://www.web2py.com/book/default/chapter/07</div></td></tr></table></div></td></tr><tr><td><div><table><tr><td><div>Email e SMS</div></td></tr><tr><td><div>False</div></td></tr><tr><td><div>http://www.web2py.com/book/default/chapter/08</div></td></tr></table></div></td></tr><tr><td><div><table><tr><td><div>Controle de Acesso</div></td></tr><tr><td><div>False</div></td></tr><tr><td><div>http://www.web2py.com/book/default/chapter/09</div></td></tr></table></div></td></tr><tr><td><div><table><tr><td><div>Servi\xc3\xa7o</div></td></tr><tr><td><div>False</div></td></tr><tr><td><div>http://www.web2py.com/book/default/chapter/10</div></td></tr></table></div></td></tr><tr><td><div><table><tr><td><div>Receitas de Ajax</div></td></tr><tr><td><div>False</div></td></tr><tr><td><div>http://www.web2py.com/book/default/chapter/11</div></td></tr></table></div></td></tr><tr><td><div><table><tr><td><div>Componentes e Plugins</div></td></tr><tr><td><div>False</div></td></tr><tr><td><div>http://www.web2py.com/book/default/chapter/12</div></td></tr></table></div></td></tr><tr><td><div><table><tr><td><div>Receitas de deploy</div></td></tr><tr><td><div>False</div></td></tr><tr><td><div>http://www.web2py.com/book/default/chapter/13</div></td></tr></table></div></td></tr><tr><td><div><table><tr><td><div>Outras Receitas</div></td></tr><tr><td><div>False</div></td></tr><tr><td><div>http://www.web2py.com/book/default/chapter/14</div></td></tr></table></div></td></tr><tr><td><div><table><tr><td><div>Helping web2py</div></td></tr><tr><td><div>False</div></td></tr><tr><td><div>http://www.web2py.com/book/default/chapter/15</div></td></tr></table></div></td></tr><tr><td><div><table><tr><td><div>Buy web2py\'s book</div></td></tr><tr><td><div>False</div></td></tr><tr><td><div>http://stores.lulu.com/web2py</div></td></tr></table></div></td></tr></table></div></td></tr></table></div></td></tr><tr><td><div><table><tr><td><div>Comunidade</div></td></tr><tr><td><div>False</div></td></tr><tr><td><div>None</div></td></tr><tr><td><div><table><tr><td><div><table><tr><td><div>Grupos</div></td></tr><tr><td><div>False</div></td></tr><tr><td><div>http://www.web2py.com/examples/default/usergroups</div></td></tr></table></div></td></tr><tr><td><div><table><tr><td><div>Twitter</div></td></tr><tr><td><div>False</div></td></tr><tr><td><div>http://twitter.com/web2py</div></td></tr></table></div></td></tr><tr><td><div><table><tr><td><div>Chat ao vivo</div></td></tr><tr><td><div>False</div></td></tr><tr><td><div>http://webchat.freenode.net/?channels=web2py</div></td></tr></table></div></td></tr></table></div></td></tr></table></div></td></tr></table></div></td></tr><tr><td style="font-weight:bold;vertical-align:top;">meta</td><td style="vertical-align:top;">:</td><td><div><table><tr><td style="font-weight:bold;vertical-align:top;">author</td><td style="vertical-align:top;">:</td><td><div>Your Name &lt;you@example.com&gt;</div></td></tr><tr><td style="font-weight:bold;vertical-align:top;">description</td><td style="vertical-align:top;">:</td><td><div>a cool new app</div></td></tr><tr><td style="font-weight:bold;vertical-align:top;">generator</td><td style="vertical-align:top;">:</td><td><div>Web2py Web Framework</div></td></tr><tr><td style="font-weight:bold;vertical-align:top;">keywords</td><td style="vertical-align:top;">:</td><td><div><table><tr><td><div>web2py</div></td></tr><tr><td><div>python</div></td></tr><tr><td><div>framework</div></td></tr></table></div></td></tr></table></div></td></tr><tr><td style="font-weight:bold;vertical-align:top;">models_to_run</td><td style="vertical-align:top;">:</td><td><div><table><tr><td><div>^\\w+\\.py$</div></td></tr><tr><td><div>^default/\\w+\\.py$</div></td></tr><tr><td><div>^default/index/\\w+\\.py$</div></td></tr></table></div></td></tr><tr><td style="font-weight:bold;vertical-align:top;">postprocessing</td><td style="vertical-align:top;">:</td><td><div><table></table></div></td></tr><tr><td style="font-weight:bold;vertical-align:top;">session_client</td><td style="vertical-align:top;">:</td><td><div>127.0.0.1</div></td></tr><tr><td style="font-weight:bold;vertical-align:top;">session_cookie_compression_level</td><td style="vertical-align:top;">:</td><td><div>None</div></td></tr><tr><td style="font-weight:bold;vertical-align:top;">session_cookie_expires</td><td style="vertical-align:top;">:</td><td><div>None</div></td></tr><tr><td style="font-weight:bold;vertical-align:top;">session_data_name</td><td style="vertical-align:top;">:</td><td><div>session_data_plano_de_acao</div></td></tr><tr><td style="font-weight:bold;vertical-align:top;">session_file</td><td style="vertical-align:top;">:</td><td><div>&lt;open file &#x27;/home/amauri/web2py/applications/plano_de_acao/sessions/077/0f1/127.0.0.1-6f549c8e-0e30-48f6-a03c-84706719cfad&#x27;, mode &#x27;rb+&#x27; at 0x7f4d6a2a7db0&gt;</div></td></tr><tr><td style="font-weight:bold;vertical-align:top;">session_filename</td><td style="vertical-align:top;">:</td><td><div>/home/amauri/web2py/applications/plano_de_acao/sessions/127.0.0.1-6f549c8e-0e30-48f6-a03c-84706719cfad</div></td></tr><tr><td style="font-weight:bold;vertical-align:top;">session_hash</td><td style="vertical-align:top;">:</td><td><div>f72ed12cf166ee6c050eabad4d2c691a</div></td></tr><tr><td style="font-weight:bold;vertical-align:top;">session_id</td><td style="vertical-align:top;">:</td><td><div>127.0.0.1-6f549c8e-0e30-48f6-a03c-84706719cfad</div></td></tr><tr><td style="font-weight:bold;vertical-align:top;">session_id_name</td><td style="vertical-align:top;">:</td><td><div>session_id_plano_de_acao</div></td></tr><tr><td style="font-weight:bold;vertical-align:top;">session_locked</td><td style="vertical-align:top;">:</td><td><div>True</div></td></tr><tr><td style="font-weight:bold;vertical-align:top;">session_masterapp</td><td style="vertical-align:top;">:</td><td><div>plano_de_acao</div></td></tr><tr><td style="font-weight:bold;vertical-align:top;">session_new</td><td style="vertical-align:top;">:</td><td><div>False</div></td></tr><tr><td style="font-weight:bold;vertical-align:top;">session_storage_type</td><td style="vertical-align:top;">:</td><td><div>file</div></td></tr><tr><td style="font-weight:bold;vertical-align:top;">status</td><td style="vertical-align:top;">:</td><td><div>200</div></td></tr><tr><td style="font-weight:bold;vertical-align:top;">subtitle</td><td style="vertical-align:top;">:</td><td><div></div></td></tr><tr><td style="font-weight:bold;vertical-align:top;">title</td><td style="vertical-align:top;">:</td><td><div>Plano De Acao</div></td></tr><tr><td style="font-weight:bold;vertical-align:top;">view</td><td style="vertical-align:top;">:</td><td><div>default/index.html</div></td></tr></table></div>'
tRp125
sS'locals'
p126
(dp127
S'Service'
p128
S"<class 'gluon.tools.Service'>"
p129
sS'OBJECT'
p130
S"<class 'gluon.html.OBJECT'>"
p131
sS'SQLDB'
p132
S"<class 'pydal.base.DAL'>"
p133
sg118
S"<Storage {'_formkey[plano/9]': ['9db97669-d270-4...ult]': ['8cba3b76-1b78-4679-a3a3-2002f13329de']}>"
p134
sS'LINK'
p135
S"<class 'gluon.html.LINK'>"
p136
sS'BR'
p137
S"<class 'gluon.html.BR'>"
p138
sS'local_import'
p139
S'<function <lambda>>'
p140
sS'OPTGROUP'
p141
S"<class 'gluon.html.OPTGROUP'>"
p142
sS'__package__'
p143
S'None'
p144
sS'PRE'
p145
S"<class 'gluon.html.PRE'>"
p146
sS'IS_INT_IN_RANGE'
p147
S"<class 'gluon.validators.IS_INT_IN_RANGE'>"
p148
sS'left_sidebar_enabled'
p149
S'False'
p150
sS'IS_LOWER'
p151
S"<class 'gluon.validators.IS_LOWER'>"
p152
sS'IS_STRONG'
p153
S"<class 'gluon.validators.IS_STRONG'>"
p154
sS'cache'
p155
S'<gluon.cache.Cache object>'
p156
sS'IS_IN_DB'
p157
S"<class 'gluon.validators.IS_IN_DB'>"
p158
sS'TAG'
p159
S'<gluon.html.__TAG__ object>'
p160
sS'SQLField'
p161
S"<class 'pydal.objects.Field'>"
p162
sS'mail'
p163
S'<gluon.tools.Mail object>'
p164
sS'BODY'
p165
S"<class 'gluon.html.BODY'>"
p166
sS'IS_DATE_IN_RANGE'
p167
S"<class 'gluon.validators.IS_DATE_IN_RANGE'>"
p168
sS'IFRAME'
p169
S"<class 'gluon.html.IFRAME'>"
p170
sS'concluido'
p171
S"<Row {'concluido': 'SIM', 'modified_by': 1L, 'pr..., 12), 'plano': 'hjjklh', 'id': 1L, 'depto': 1L}>"
p172
sS'URL'
p173
S'<function URL>'
p174
sS'__file__'
p175
S"'/home/amauri/web2py/applications/plano_de_acao/views/default/index.html'"
p176
sS'db'
p177
S'<DAL uri="sqlite://storage.sqlite">'
p178
sS'auth'
p179
S'<gluon.tools.Auth object>'
p180
sS'P'
S"<class 'gluon.html.P'>"
p181
sS'TFOOT'
p182
S"<class 'gluon.html.TFOOT'>"
p183
sS'XHTML'
p184
S"<class 'gluon.html.XHTML'>"
p185
sS'datetime'
p186
S"<module 'datetime' (built-in)>"
p187
sS'ON'
p188
S'True'
p189
sS'OL'
p190
S"<class 'gluon.html.OL'>"
p191
sS'TEXTAREA'
p192
S"<class 'gluon.html.TEXTAREA'>"
p193
sS'MENU'
p194
S"<class 'gluon.html.MENU'>"
p195
sS'button'
p196
S'<gluon.html.A object>'
p197
sS'IS_IMAGE'
p198
S"<class 'gluon.validators.IS_IMAGE'>"
p199
sS'EM'
p200
S"<class 'gluon.html.EM'>"
p201
sS'CODE'
p202
S"<class 'gluon.html.CODE'>"
p203
sS'HTTP'
p204
S"<class 'gluon.http.HTTP'>"
p205
sS'DEP'
p206
S'<Table departamento (id, setor)>'
p207
sS'IS_DATETIME'
p208
S"<class 'gluon.validators.IS_DATETIME'>"
p209
sS'STYLE'
p210
S"<class 'gluon.html.STYLE'>"
p211
sS'LABEL'
p212
S"<class 'gluon.html.LABEL'>"
p213
sS'CLEANUP'
p214
S"<class 'gluon.validators.CLEANUP'>"
p215
sS'plugins'
p216
S'<gluon.tools.PluginManager object>'
p217
sS'SELECT'
p218
S"<class 'gluon.html.SELECT'>"
p219
sS'CENTER'
p220
S"<class 'gluon.html.CENTER'>"
p221
sS'prettydate'
p222
S'<function prettydate>'
p223
sS'Auth'
p224
S"<class 'gluon.tools.Auth'>"
p225
sS'DEVELOPMENT_MENU'
p226
g189
sS'__builtins__'
p227
S"{'ArithmeticError': <type 'exceptions.ArithmeticError'>, 'AssertionError': <type 'exceptions.AssertionError'>, 'AttributeError': <type 'exceptions.AttributeError'>, 'BaseException': <type 'exceptions.BaseException'>, 'BufferError': <type 'exceptions.BufferError'>, 'BytesWarning': <type 'exceptions.BytesWarning'>, 'DeprecationWarning': <type 'exceptions.DeprecationWarning'>, 'EOFError': <type 'exceptions.EOFError'>, 'Ellipsis': Ellipsis, 'EnvironmentError': <type 'exceptions.EnvironmentError'>, ...}"
p228
sS'HTML'
p229
S"<class 'gluon.html.HTML'>"
p230
sS'SQLFORM'
p231
S"<class 'gluon.sqlhtml.SQLFORM'>"
p232
sS'LOAD'
p233
S'<function LOAD>'
p234
sS'redirect'
p235
S'<function redirect>'
p236
sS'FIELDSET'
p237
S"<class 'gluon.html.FIELDSET'>"
p238
sS'IS_EQUAL_TO'
p239
S"<class 'gluon.validators.IS_EQUAL_TO'>"
p240
sS'embed64'
p241
S'<function embed64>'
p242
sS'IS_LIST_OF'
p243
S"<class 'gluon.validators.IS_LIST_OF'>"
p244
sS'INPUT'
p245
S"<class 'gluon.html.INPUT'>"
p246
sS'EMBED'
p247
S"<class 'gluon.html.EMBED'>"
p248
sS'_'
S'<function _>'
p249
sS'planos'
p250
S'<Rows (3)>'
p251
sS'myconf'
p252
S"{'forms': {'formstyle': 'bootstrap3_inline', 'se...': {'names': 'localhost:*, 127.0.0.1:*, *:*, *'}}"
p253
sS'H2'
p254
S"<class 'gluon.html.H2'>"
p255
sS'H3'
p256
S"<class 'gluon.html.H3'>"
p257
sS'AppConfig'
p258
S'<function AppConfig>'
p259
sS'H1'
p260
S"<class 'gluon.html.H1'>"
p261
sS'H6'
p262
S"<class 'gluon.html.H6'>"
p263
sS'H4'
p264
S"<class 'gluon.html.H4'>"
p265
sS'H5'
p266
S"<class 'gluon.html.H5'>"
p267
sS'UL'
p268
S"<class 'gluon.html.UL'>"
p269
sS'IS_UPPER'
p270
S"<class 'gluon.validators.IS_UPPER'>"
p271
sS'xmlescape'
p272
S'<function xmlescape>'
p273
sS'IS_TIME'
p274
S"<class 'gluon.validators.IS_TIME'>"
p275
sS'PROB'
p276
S'<Table problemas (id, problema)>'
p277
sS'OPTION'
p278
S"<class 'gluon.html.OPTION'>"
p279
sS'TITLE'
p280
S"<class 'gluon.html.TITLE'>"
p281
sS'CRYPT'
p282
S"<class 'gluon.validators.CRYPT'>"
p283
sS'IS_EMPTY_OR'
p284
S"<class 'gluon.validators.IS_EMPTY_OR'>"
p285
sS'MARKMIN'
p286
S"<class 'gluon.html.MARKMIN'>"
p287
sS'__name__'
p288
S"'__restricted__'"
p289
sS'STRONG'
p290
S"<class 'gluon.html.STRONG'>"
p291
sS'COL'
p292
S"<class 'gluon.html.COL'>"
p293
sS'mc1'
p294
S"'col-md-9'"
p295
sS'mc0'
p296
S"'col-md-12'"
p297
sS'service'
p298
S'<gluon.tools.Service object>'
p299
sS'SCRIPT'
p300
S"<class 'gluon.html.SCRIPT'>"
p301
sS'HR'
p302
S"<class 'gluon.html.HR'>"
p303
sS'TABLE'
p304
S"<class 'gluon.html.TABLE'>"
p305
sS'IS_IPV4'
p306
S"<class 'gluon.validators.IS_IPV4'>"
p307
sS'IS_LENGTH'
p308
S"<class 'gluon.validators.IS_LENGTH'>"
p309
sS'IS_IPV6'
p310
S"<class 'gluon.validators.IS_IPV6'>"
p311
sS'XML'
p312
S"<class 'gluon.html.XML'>"
p313
sS'concluidos'
p314
S'<Rows (2)>'
p315
sS'B'
S"<class 'gluon.html.B'>"
p316
sS'IMG'
p317
S"<class 'gluon.html.IMG'>"
p318
sS'SQLTABLE'
p319
S"<class 'gluon.sqlhtml.SQLTABLE'>"
p320
sS'IS_MATCH'
p321
S"<class 'gluon.validators.IS_MATCH'>"
p322
sS'IS_ALPHANUMERIC'
p323
S"<class 'gluon.validators.IS_ALPHANUMERIC'>"
p324
sS'SPAN'
p325
S"<class 'gluon.html.SPAN'>"
p326
sS'IS_JSON'
p327
S"<class 'gluon.validators.IS_JSON'>"
p328
sS'IS_IPADDRESS'
p329
S"<class 'gluon.validators.IS_IPADDRESS'>"
p330
sS'IS_SLUG'
p331
S"<class 'gluon.validators.IS_SLUG'>"
p332
sS'BEAUTIFY'
p333
S"<class 'gluon.html.BEAUTIFY'>"
p334
sS'META'
p335
S"<class 'gluon.html.META'>"
p336
sS'BUTTON'
p337
S"<class 'gluon.html.BUTTON'>"
p338
sS'IS_DATE'
p339
S"<class 'gluon.validators.IS_DATE'>"
p340
sS'IS_EMAIL'
p341
S"<class 'gluon.validators.IS_EMAIL'>"
p342
sS'middle_column'
p343
S"'col-md-12'"
p344
sS'IS_NOT_EMPTY'
p345
S"<class 'gluon.validators.IS_NOT_EMPTY'>"
p346
sS'IS_FLOAT_IN_RANGE'
p347
S"<class 'gluon.validators.IS_FLOAT_IN_RANGE'>"
p348
sS'TBODY'
p349
S"<class 'gluon.html.TBODY'>"
p350
sS'CAT'
p351
S"<class 'gluon.html.CAT'>"
p352
sS'Field'
p353
S"<class 'pydal.objects.Field'>"
p354
sS'mc2'
p355
S"'col-md-6'"
p356
sS'IS_LIST_OF_EMAILS'
p357
S"<class 'gluon.validators.IS_LIST_OF_EMAILS'>"
p358
sS'DIV'
p359
S"<class 'gluon.html.DIV'>"
p360
sS'LEGEND'
p361
S"<class 'gluon.html.LEGEND'>"
p362
sS'form'
p363
S'<gluon.sqlhtml.SQLFORM object>'
p364
sS'COLGROUP'
p365
S"<class 'gluon.html.COLGROUP'>"
p366
sS'DAL'
p367
S"<class 'pydal.base.DAL'>"
p368
sS'ASSIGNJS'
p369
S'<function ASSIGNJS>'
p370
sS'TR'
p371
S"<class 'gluon.html.TR'>"
p372
sS'faltando'
p373
S'datetime.timedelta(-1)'
p374
sS'LI'
p375
S"<class 'gluon.html.LI'>"
p376
sS'right_sidebar_enabled'
p377
g150
sS'TH'
p378
S"<class 'gluon.html.TH'>"
p379
sS'TD'
p380
S"<class 'gluon.html.TD'>"
p381
sS'PluginManager'
p382
S"<class 'gluon.tools.PluginManager'>"
p383
sS'IS_URL'
p384
S"<class 'gluon.validators.IS_URL'>"
p385
sS'A'
S"<class 'gluon.html.A'>"
p386
sS'HEAD'
p387
S"<class 'gluon.html.HEAD'>"
p388
sS'IS_DATETIME_IN_RANGE'
p389
S"<class 'gluon.validators.IS_DATETIME_IN_RANGE'>"
p390
sS'FORM'
p391
S"<class 'gluon.html.FORM'>"
p392
sS'I'
S"<class 'gluon.html.I'>"
p393
sS'IS_NOT_IN_DB'
p394
S"<class 'gluon.validators.IS_NOT_IN_DB'>"
p395
sS'plano'
p396
S"<Row {'concluido': 'N\\xc3\\x83O', 'modified_by': ..., 13, 3, 9), 'plano': '', 'id': 5L, 'depto': 3L}>"
p397
sg124
S"<Storage {'body': <cStringIO.StringO object at 0...t 0x7f4d6a34e848>, 'view': 'default/index.html'}>"
p398
sS'THEAD'
p399
S"<class 'gluon.html.THEAD'>"
p400
sS'ANY_OF'
p401
S"<class 'gluon.validators.ANY_OF'>"
p402
sS'IS_NULL_OR'
p403
S"<class 'gluon.validators.IS_EMPTY_OR'>"
p404
sS'i'
S"<Row {'concluido': 'N\\xc3\\x83O', 'modified_by': ... 49), 'plano': 'ghjkghj', 'id': 2L, 'depto': 1L}>"
p405
sg56
S"<Storage {'_vars': None, 'function': 'index', 'c...home/amauri/web2py/applications/plano_de_acao/'}>"
p406
sS'IS_EXPR'
p407
S"<class 'gluon.validators.IS_EXPR'>"
p408
sS'T'
S'<gluon.languages.translator object>'
p409
sS'IS_IN_SET'
p410
S"<class 'gluon.validators.IS_IN_SET'>"
p411
sS'IS_UPLOAD_FILENAME'
p412
S"<class 'gluon.validators.IS_UPLOAD_FILENAME'>"
p413
sS'PLANO'
p414
S'<Table plano (id, depto, titulo, descricao, plan...reated_on, created_by, modified_on, modified_by)>'
p415
sS'TT'
p416
S"<class 'gluon.html.TT'>"
p417
sS'IS_DECIMAL_IN_RANGE'
p418
S"<class 'gluon.validators.IS_DECIMAL_IN_RANGE'>"
p419
sssS'traceback'
p420
S'Traceback (most recent call last):\n  File "/home/amauri/web2py/gluon/restricted.py", line 227, in restricted\n    exec ccode in environment\n  File "/home/amauri/web2py/applications/plano_de_acao/views/default/index.html", line 227, in <module>\n    <th>NOME</th>\nTypeError: format requires a mapping\n'
p421
s.