(dp1
S'output'
p2
S'missing "pass" in view'
p3
sS'layer'
p4
S'ParserContainer'
p5
sS'code'
p6
S'response.write(\'<!DOCTYPE html>\\n<!--[if (gt IE 9)|!(IE)]><!--> <html class="no-js" lang="\', escape=False)\nresponse.write(T.accepted_language or \'en\')\nresponse.write(\'"> <!--<![endif]-->\\n  <head>\\n    <meta charset="utf-8">\\n    <!-- www.phpied.com/conditional-comments-block-downloads/ -->\\n    <!-- Always force latest IE rendering engine\\n         (even in intranet) & Chrome Frame\\n         Remove this if you use the .htaccess -->\\n    <meta http-equiv="X-UA-Compatible" content="IE=edge\', escape=False)\nresponse.write(not request.is_local and \',chrome=1\' or \'\')\nresponse.write(\'">\\n    <!--  Mobile Viewport Fix\\n          j.mp/mobileviewport & davidbcalhoun.com/2010/viewport-metatag\\n          device-width: Occupy full width of the screen in its current orientation\\n          initial-scale = 1.0 retains dimensions instead of zooming out if page height > device height\\n          user-scalable = yes allows the user to zoom in -->\\n    <meta name="viewport" content="width=device-width, initial-scale=1.0">\\n    <title>\', escape=False)\nresponse.write(response.title or request.application)\nresponse.write(\'</title>\\n    <!-- http://dev.w3.org/html5/markup/meta.name.html -->\\n    <meta name="application-name" content="\', escape=False)\nresponse.write(request.application)\nresponse.write(\'">\\n    <!-- Speaking of Google, don\\\'t forget to set your site up:\\n         http://google.com/webmasters -->\\n    <meta name="google-site-verification" content="">\\n    <!-- include stylesheets -->\\n    <link rel="stylesheet" href="\', escape=False)\nresponse.write(URL(\'static\',\'css/bootstrap.min.css\'))\nresponse.write(\'"/>\\n    <link rel="stylesheet" href="\', escape=False)\nresponse.write(URL(\'static\',\'css/web2py-bootstrap3.css\'))\nresponse.write(\'"/>\\n    <link rel="shortcut icon" href="\', escape=False)\nresponse.write(URL(\'static\',\'images/favicon.ico\'))\nresponse.write(\'" type="image/x-icon">\\n    <link rel="apple-touch-icon" href="\', escape=False)\nresponse.write(URL(\'static\',\'images/favicon.png\'))\nresponse.write(\'">\\n    <!-- All JavaScript at the bottom, except for Modernizr which enables\\n         HTML5 elements & feature detects -->\\n    <script src="\', escape=False)\nresponse.write(URL(\'static\',\'js/modernizr-2.8.3.min.js\'))\nresponse.write(\'"></script>\\n\\n    <!-- jQuery e Tablesorter -->\\n    <!-- <script type="text/javascript" src="\', escape=False)\nresponse.write(URL(\'static\',\'js/scripts.js\'))\nresponse.write(\'"></script> -->\\n    \\n    <script type="text/javascript" src="\', escape=False)\nresponse.write(URL(\'static\',\'js/jquery-latest.js\'))\nresponse.write(\'"></script>\\n    <script type="text/javascript" src="\', escape=False)\nresponse.write(URL(\'static\',\'js/jquery.tablesorter.min.js\'))\nresponse.write(\'"></script>\\n\\n<!--     <script type="text/javascript">\\n    $(document).ready(function() \\n        { \\n            $(".tablesorter").tablesorter(); \\n        } \\n    ); \\n    </script> -->\\n    \\n    <!-- <script type="text/javascript">\\n    $(document).ready(function() \\n        { \\n            $("#myTable").tablesorter(); \\n        } \\n    ); \\n    </script>\\n     -->\\n    <style>\\n      th, td{cursor: pointer;}\\n    </style>\\n\\n<!--     <script type="text/javascript">\\n    $(document).ready(function(){\\n        $(\\\'.link\\\').click(function(){\\n            window.location = $(this).attr(\\\'href\\\');\\n            return false;\\n        });\\n        // jQuery(\\\'#concluidos\\\').click(function() {\\n        //   ajax(\\\'\', escape=False)\nresponse.write(URL(\'funcoes\', \'concluidos\'))\nresponse.write(\'\\\')\\n        //   // return false;\\n        // });\\n    });\\n    </script> -->\\n\\n\\n    <!--[if lt IE 9]>\\n        <script src="\', escape=False)\nresponse.write(URL(\'static\',\'js/respond-1.4.2.min.js\'))\nresponse.write(\'"></script>\\n        <![endif]-->\\n    <!-- Favicons -->\\n    \', escape=False)\nresponse.write(\'<script type="text/javascript"><!--\\n    // These variables are used by the web2py_ajax_init function in web2py_ajax.js (which is loaded below).\\n    var w2p_ajax_confirm_message = "\', escape=False)\nresponse.write(T(\'Are you sure you want to delete this object?\'))\nresponse.write(\'";\\n    var w2p_ajax_disable_with_message = "\', escape=False)\nresponse.write(T(\'Working...\'))\nresponse.write(\'";\\n    var w2p_ajax_date_format = "\', escape=False)\nresponse.write(T(\'%Y-%m-%d\'))\nresponse.write(\'";\\n    var w2p_ajax_datetime_format = "\', escape=False)\nresponse.write(T(\'%Y-%m-%d %H:%M:%S\'))\nresponse.write(\'";\\n    var ajax_error_500 = \\\'\', escape=False)\nresponse.write(T.M(\'An error occured, please [[reload %s]] the page\') % URL(args=request.args, vars=request.get_vars))\nresponse.write("\'\\n    //--></script>\\n", escape=False)\nresponse.files.insert(0,URL(\'static\',\'js/jquery.js\'))\nresponse.files.insert(1,URL(\'static\',\'css/calendar.css\'))\nresponse.files.insert(2,URL(\'static\',\'js/calendar.js\'))\nresponse.files.insert(3,URL(\'static\',\'js/web2py.js\'))\nresponse.include_meta()\nresponse.include_files()\nresponse.write(\'\\n\', escape=False)\nresponse.write(\' <!-- this includes jquery.js, calendar.js/.css and web2py.js -->\\n    \', escape=False)\nresponse.write(\'\\n    \', escape=False)\n# using sidebars need to know what sidebar you want to use\nmc0 = \'col-md-12\'\nmc1 = \'col-md-9\'\nmc2 = \'col-md-6\'\nleft_sidebar_enabled = globals().get(\'left_sidebar_enabled\', False)\nright_sidebar_enabled = globals().get(\'right_sidebar_enabled\', False)\nmiddle_column = {0: mc0, 1: mc1, 2: mc2}[\n(left_sidebar_enabled and 1 or 0)+(right_sidebar_enabled and 1 or 0)]\nresponse.write(\'\\n\\n  </head>\\n  <body>\\n    <!--[if lt IE 8]><p class="browserupgrade">You are using an <strong>outdated</strong> browser. Please <a href="http://browsehappy.com/">upgrade your browser</a> to improve your experience.</p><![endif]-->\\n    <div class="w2p_flash alert alert-dismissable">\', escape=False)\nresponse.write(response.flash or \'\')\nresponse.write(\'</div>\\n    <!-- Navbar ======================================= -->\\n    <nav class="navbar navbar-default navbar-fixed-top" role="navigation">\\n      <div class="container-fluid">\\n        <div class="navbar-header">\\n          <button type="button" class="navbar-toggle" data-toggle="collapse" data-target=".navbar-collapse">\\n            <span class="sr-only">Toggle navigation</span>\\n            <span class="icon-bar"></span>\\n            <span class="icon-bar"></span>\\n            <span class="icon-bar"></span>\\n          </button>\\n          \', escape=False)\nresponse.write(response.logo or \'\')\nresponse.write(\'\\n        </div>\\n        <div class="collapse navbar-collapse navbar-ex1-collapse">\\n          <ul class="nav navbar-nav navbar-right">\\n            \', escape=False)\nresponse.write(\'auth\' in globals() and auth.navbar(\'Welcome\',mode=\'dropdown\') or \'\')\nresponse.write(\'\\n          </ul>\\n          \', escape=False)\nif response.menu:\n    response.write(\'\\n          \', escape=False)\n    response.write(MENU(response.menu, _class=\'nav navbar-nav\',li_class=\'dropdown\',ul_class=\'dropdown-menu\'))\n    response.write(\'\\n          \', escape=False)\n    pass\nresponse.write(\'\\n        </div>\\n      </div>\\n    </nav>\\n    <!-- Masthead ===================================== -->    \\n    \', escape=False)\nresponse.write(\'\\n    \', escape=False)\nresponse.write(\'\\n    <!-- Main ========================================= -->\\n    <!-- Begin page content -->\\n    <div class="container-fluid main-container">\\n      \', escape=False)\nif left_sidebar_enabled:\n    response.write(\'\\n        <div class="col-md-3 left-sidebar">\\n            \', escape=False)\n    response.write(\'\\n            <h3>Left Sidebar</h3>\\n            <p></p>\\n            \', escape=False)\n    response.write(\'\\n        </div>\\n      \', escape=False)\n    pass\nresponse.write(\'\\n\\n      <div class="\', escape=False)\nresponse.write(middle_column)\nresponse.write(\'">\\n        \', escape=False)\nresponse.write(\'\\n        \', escape=False)\nresponse.write(\'\\n\\n<!-- <div class="row">\\n\\t<div class="col-xs-12 col-lg-3">\\n\\t\\t<a href="\', escape=False)\nresponse.write(URL(\'novo_plano\'))\nresponse.write(\'" class="btn btn-primary">Criar novo plano</a><br /><br />\\n\\t</div>\\n</div>\\n -->\\n<ul class="nav nav-tabs">\\n\\t<li id="li-planos" class="active"><a data-toggle="tab" href="#planos">Planos</a></li>\\n\\t<li id="li-concluidos"><a data-toggle="tab" href="#concluidos">Conclu\\xc3\\xaddos</a></li>\\n\\t<li id="li-novo_plano"><a data-toggle="tab" href="#novo_plano">Novo Plano</a></li>\\n</ul>\\n\\n<div class="tab-content">\\n\\t<div id="planos" class="row tab-pane fade in active">\\n\\t\\t<div class="col-xs-12">\\n\\t\\t\\t<table class="tablesorter table table-hover">\\n\\t\\t\\t<thead>\\n\\t\\t\\t\\t<tr class="active">\\n\\t\\t\\t\\t\\t<th><button type="button" class="btn btn-active btn-sm">Setor \\n\\t\\t\\t\\t\\t<span class="glyphicon glyphicon-triangle-bottom" aria-hidden="true"></span></button></th>\\n\\t\\t\\t\\t\\t<th><button type="button" class="btn btn-active btn-sm">T\\xc3\\xadtulo \\n\\t\\t\\t\\t\\t<span class="glyphicon glyphicon-triangle-bottom" aria-hidden="true"></span></button></th>\\n\\t\\t\\t\\t\\t<th><button type="button" class="btn btn-active btn-sm">Descri\\xc3\\xa7\\xc3\\xa3o  \\n\\t\\t\\t\\t\\t<span class="glyphicon glyphicon-triangle-bottom" aria-hidden="true"></span></button></th>\\n\\t\\t\\t\\t\\t<th><button type="button" class="btn btn-active btn-sm">Plano \\n\\t\\t\\t\\t\\t<span class="glyphicon glyphicon-triangle-bottom" aria-hidden="true"></span></button></th>\\n\\t\\t\\t\\t\\t<th><button type="button" class="btn btn-active btn-sm">A\\xc3\\xa7\\xc3\\xa3o \\n\\t\\t\\t\\t\\t<span class="glyphicon glyphicon-triangle-bottom" aria-hidden="true"></span></button></th>\\n\\t\\t\\t\\t\\t<th><button type="button" class="btn btn-active btn-sm">Prazo \\n\\t\\t\\t\\t\\t<span class="glyphicon glyphicon-triangle-bottom" aria-hidden="true"></span></button></th>\\n\\t\\t\\t\\t\\t<th><button type="button" class="btn btn-active btn-sm">Dias\\n\\t\\t\\t\\t\\t<span class="glyphicon glyphicon-triangle-bottom" aria-hidden="true"></span></button></th>\\n\\t\\t\\t\\t\\t<th><button type="button" class="btn btn-active btn-sm">Conclu\\xc3\\xaddo \\n\\t\\t\\t\\t\\t<span class="glyphicon glyphicon-triangle-bottom" aria-hidden="true"></span></button></th>\\n\\t\\t\\t\\t</tr>\\n\\t\\t\\t</thead>\\n\\t\\t\\t\\t\', escape=False)\nfor plano in planos:\n    response.write(\'\\n\\t\\t\\t<tbody>\\n\\t\\t\\t\\t<tr class="link" href="\', escape=False)\n    response.write(URL(\'editar_plano\', args=plano.id))\n    response.write(\'">\\n\\t\\t\\t\\t\\t<td>\', escape=False)\n    response.write(\'%(setor)s\' %(plano.depto))\n    response.write(\'</td>\\n\\t\\t\\t\\t\\t<td>\', escape=False)\n    response.write(\'%(problema)s\' %(plano.titulo))\n    response.write(\'</td>\\n\\t\\t\\t\\t\\t<td>\', escape=False)\n    response.write(plano.descricao)\n    response.write(\'</td>\\n\\t\\t\\t\\t\\t<td>\', escape=False)\n    response.write(plano.plano)\n    response.write(\'</td>\\n\\t\\t\\t\\t\\t<td>\', escape=False)\n    response.write(plano.acao)\n    response.write(\'</td>\\n\\t\\t\\t\\t\\t<td>\', escape=False)\n    response.write(plano.prazo.strftime("%d/%m/%Y"))\n    response.write(\'</td>\\n\\t\\t\\t\\t\\t\', escape=False)\n    faltando = plano.prazo - datetime.date.today()\n    response.write(\'\\n\\t\\t\\t\\t\\t\', escape=False)\n    if  int(faltando.days) == 1:\n        response.write(\'\\n\\t\\t\\t\\t\\t<td>\', escape=False)\n        response.write(\'FALTA %s DIA\' %(faltando.days))\n        response.write(\'</td>\\n\\t\\t\\t\\t\\t\', escape=False)\n    elif int(faltando.days) == -1:\n        response.write(\'\\n\\t\\t\\t\\t\\t<td>\', escape=False)\n        response.write(\'ATRASADO %s DIA\' %(faltando.days * -1))\n        response.write(\'</td>\\n\\t\\t\\t\\t\\t\', escape=False)\n    elif int(faltando.days) == 0:\n        response.write(\'\\n\\t\\t\\t\\t\\t<td>HOJE</td>\\n\\t\\t\\t\\t\\t\', escape=False)\n    elif int(faltando.days) < -1:\n        response.write(\'\\n\\t\\t\\t\\t\\t<td>\', escape=False)\n        response.write(\'ATRASADO %s DIAS\' %(faltando.days * -1))\n        response.write(\'</td>\\n\\t\\t\\t\\t\\t\', escape=False)\n    else:\n        response.write(\'\\n\\t\\t\\t\\t\\t<td>\', escape=False)\n        response.write(\'FALTAM %s DIAS\' %faltando.days)\n        response.write(\'</td>\\n\\t\\t\\t\\t\\t\', escape=False)\n        pass\n    response.write(\'\\n\\t\\t\\t\\t\\t<td>\', escape=False)\n    response.write(plano.concluido)\n    response.write(\'</td>\\n\\t\\t\\t\\t</tr>\\n\\t\\t\\t\\t\', escape=False)\n    pass\nresponse.write(\'\\n\\t\\t\\t</tbody>\\n\\t\\t\\t</table>\\n\\t\\t</div>\\n\\t</div>\\n\\n\\n\\t<div id="concluidos" class="row tab-pane fade in">\\n\\t\\t<div class="col-xs-12">\\n\\t\\t\\t<table class="tablesorter table table-hover">\\n\\t\\t\\t<thead>\\n\\t\\t\\t\\t<tr class="active">\\n\\t\\t\\t\\t\\t<th><button type="button" class="btn btn-active btn-sm">Setor \\n\\t\\t\\t\\t\\t<span class="glyphicon glyphicon-triangle-bottom" aria-hidden="true"></span></button></th>\\n\\t\\t\\t\\t\\t<th><button type="button" class="btn btn-active btn-sm">T\\xc3\\xadtulo \\n\\t\\t\\t\\t\\t<span class="glyphicon glyphicon-triangle-bottom" aria-hidden="true"></span></button></th>\\n\\t\\t\\t\\t\\t<th><button type="button" class="btn btn-active btn-sm">Descri\\xc3\\xa7\\xc3\\xa3o  \\n\\t\\t\\t\\t\\t<span class="glyphicon glyphicon-triangle-bottom" aria-hidden="true"></span></button></th>\\n\\t\\t\\t\\t\\t<th><button type="button" class="btn btn-active btn-sm">Plano \\n\\t\\t\\t\\t\\t<span class="glyphicon glyphicon-triangle-bottom" aria-hidden="true"></span></button></th>\\n\\t\\t\\t\\t\\t<th><button type="button" class="btn btn-active btn-sm">A\\xc3\\xa7\\xc3\\xa3o \\n\\t\\t\\t\\t\\t<span class="glyphicon glyphicon-triangle-bottom" aria-hidden="true"></span></button></th>\\n\\t\\t\\t\\t\\t<th><button type="button" class="btn btn-active btn-sm">In\\xc3\\xadcio \\n\\t\\t\\t\\t\\t<span class="glyphicon glyphicon-triangle-bottom" aria-hidden="true"></span></button></th>\\n\\t\\t\\t\\t\\t<th><button type="button" class="btn btn-active btn-sm">T\\xc3\\xa9rmino \\n\\t\\t\\t\\t\\t<span class="glyphicon glyphicon-triangle-bottom" aria-hidden="true"></span></button></th>\\n\\t\\t\\t\\t\\t<th><button type="button" class="btn btn-active btn-sm">Conclu\\xc3\\xaddo \\n\\t\\t\\t\\t\\t<span class="glyphicon glyphicon-triangle-bottom" aria-hidden="true"></span></button></th>\\n\\t\\t\\t\\t</tr>\\n\\t\\t\\t</thead>\\n\\t\\t\\t\\t\', escape=False)\nfor concluido in concluidos:\n    response.write(\'\\n\\t\\t\\t<tbody>\\n\\t\\t\\t\\t<tr class="link" href="\', escape=False)\n    response.write(URL(\'ver_concluido\', args=concluido.id))\n    response.write(\'">\\n\\t\\t\\t\\t\\t<td>\', escape=False)\n    response.write(\'%(setor)s\' %(concluido.depto))\n    response.write(\'</td>\\n\\t\\t\\t\\t\\t<td>\', escape=False)\n    response.write(\'%(problema)s\' %(concluido.titulo))\n    response.write(\'</td>\\n\\t\\t\\t\\t\\t<td>\', escape=False)\n    response.write(concluido.descricao)\n    response.write(\'</td>\\n\\t\\t\\t\\t\\t<td>\', escape=False)\n    response.write(concluido.plano)\n    response.write(\'</td>\\n\\t\\t\\t\\t\\t<td>\', escape=False)\n    response.write(concluido.acao)\n    response.write(\'</td>\\n\\t\\t\\t\\t\\t<td>\', escape=False)\n    response.write(concluido.created_on)\n    response.write(\'</td>\\n\\t\\t\\t\\t\\t<td>\', escape=False)\n    response.write(concluido.modified_on)\n    response.write(\'</td>\\n\\t\\t\\t\\t\\t<td>\', escape=False)\n    response.write(concluido.concluido)\n    response.write(\'</td>\\n\\t\\t\\t\\t\\t\', escape=False)\n    pass\nresponse.write(\'\\n\\t\\t\\t\\t</tr>\\n\\t\\t\\t\\t\', escape=False)\npass\nresponse.write(\'\\n\\t\\t\\t</tbody>\\n\\t\\t\\t</table>\\n\\t\\t</div>\\n\\t</div>\\n\\n\\t<div id="novo_plano" class="row tab-pane fade in">\\n\\t\\t<div class="col-xs-12">\\n\\t\\t\\t\', escape=False)\nresponse.write(form.custom.begin)\nresponse.write(\'\\n\\t\\t\\t<div class="col-xs-3 col-lg-3">\\n\\t\\t\\t\\t<br />\\n\\t\\t\\t\\t\', escape=False)\nform.elements(\'#plano_depto\')[0][\'class\']=\'form-control\'\nresponse.write(\'\\n\\t\\t\\t\\t\', escape=False)\nform.elements(\'#plano_depto\')[0]\nresponse.write(\'\\n\\t\\t\\t\\t\', escape=False)\nresponse.write(form.custom.label.depto)\nresponse.write(\'\\n\\t\\t\\t\\t\', escape=False)\nresponse.write(form.custom.widget.depto)\nresponse.write(\'\\n\\t\\t\\t\\t<br />\\n\\t\\t\\t\\t\', escape=False)\nform.elements(\'#plano_titulo\')[0][\'class\']=\'form-control\'\nresponse.write(\'\\n\\t\\t\\t\\t\', escape=False)\nform.elements(\'#plano_titulo\')[0]\nresponse.write(\'\\n\\t\\t\\t\\t\', escape=False)\nresponse.write(form.custom.label.titulo)\nresponse.write(\'\\n\\t\\t\\t\\t\', escape=False)\nresponse.write(form.custom.widget.titulo)\nresponse.write(\'\\n\\t\\t\\t\\t<br />\\n\\t\\t\\t\\t\', escape=False)\nform.elements(\'#plano_prazo\')[0][\'class\']=\'form-control\'\nresponse.write(\'\\n\\t\\t\\t\\t\', escape=False)\nform.elements(\'#plano_prazo\')[0][\'_placeholder\']=\'PRAZO\'\nresponse.write(\'\\n\\t\\t\\t\\t\', escape=False)\nresponse.write(form.custom.label.prazo)\nresponse.write(\'\\n\\t\\t\\t\\t\', escape=False)\nresponse.write(form.custom.widget.prazo)\nresponse.write(\'\\n\\t\\t\\t\\t<br />\\n\\t\\t\\t\\t\', escape=False)\nresponse.write(form.custom.label.concluido)\nresponse.write(\'\\n\\t\\t\\t\\t\', escape=False)\nresponse.write(form.custom.widget.concluido)\nresponse.write(\'\\n\\t\\t\\t\\t<div class="col-xs-12 text-center">\\n\\t\\t\\t\\t\\t\', escape=False)\nform.element(_type=\'submit\')[\'_style\']=\'border-radius:5px;\'\nresponse.write(\'\\n\\t\\t\\t\\t\\t\', escape=False)\nresponse.write(form.custom.submit)\nresponse.write(\'\\t\', escape=False)\nresponse.write(button)\nresponse.write(\'\\n\\t\\t\\t\\t</div>\\n\\t\\t\\t</div>\\n\\t\\t\\t<br />\\n\\t\\t\\t<div class="col-xs-3 col-lg-3">\\n\\t\\t\\t\\t\', escape=False)\nform.elements(\'#plano_descricao\')[0][\'_style\']=\'height: 350px;\'\nresponse.write(\'\\n\\t\\t\\t\\t\', escape=False)\nform.elements(\'#plano_descricao\')[0][\'class\']=\'form-control\'\nresponse.write(\'\\n\\t\\t\\t\\t\', escape=False)\nform.elements(\'#plano_descricao\')[0][\'_placeholder\']=\'DESCRI\xc3\x87\xc3\x83O\'\nresponse.write(\'\\n\\t\\t\\t\\t\', escape=False)\nresponse.write(form.custom.label.descricao)\nresponse.write(\'\\n\\t\\t\\t\\t\', escape=False)\nresponse.write(form.custom.widget.descricao)\nresponse.write(\'\\n\\t\\t\\t</div>\\n\\t\\t\\t<div class="col-xs-3 col-lg-3">\\n\\t\\t\\t\\t\', escape=False)\nform.elements(\'#plano_plano\')[0][\'class\']=\'form-control\'\nresponse.write(\'\\n\\t\\t\\t\\t\', escape=False)\nform.elements(\'#plano_plano\')[0][\'_style\']=\'height: 350px;\'\nresponse.write(\'\\n\\t\\t\\t\\t\', escape=False)\nform.elements(\'#plano_plano\')[0][\'_placeholder\']=\'PLANO\'\nresponse.write(\'\\n\\t\\t\\t\\t\', escape=False)\nresponse.write(form.custom.label.plano)\nresponse.write(\'\\n\\t\\t\\t\\t\', escape=False)\nresponse.write(form.custom.widget.plano)\nresponse.write(\'\\n\\t\\t\\t</div>\\n\\t\\t\\t<div class="col-xs-3 col-lg-3">\\n\\t\\t\\t\\t\', escape=False)\nform.elements(\'#plano_acao\')[0][\'class\']=\'form-control\'\nresponse.write(\'\\n\\t\\t\\t\\t\', escape=False)\nform.elements(\'#plano_acao\')[0][\'_style\']=\'height: 350px;\'\nresponse.write(\'\\n\\t\\t\\t\\t\', escape=False)\nform.elements(\'#plano_acao\')[0][\'_placeholder\']=\'A\xc3\x87\xc3\x83O\'\nresponse.write(\'\\n\\t\\t\\t\\t\', escape=False)\nresponse.write(form.custom.label.acao)\nresponse.write(\'\\n\\t\\t\\t\\t\', escape=False)\nresponse.write(form.custom.widget.acao)\nresponse.write(\'\\n\\t\\t\\t</div>\\n\\n\\n\\t\\t\\t\', escape=False)\nresponse.write(form.custom.end)\nresponse.write(\'\\n\\t\\t</div>\\n\\t</div>\\n</div>\\n\\n<!-- <a href="\', escape=False)\nresponse.write(URL(\'novo_plano\'))\nresponse.write(\'" class="btn btn-primary">Criar novo plano</a> -->\\n\\n\', escape=False)\nif form.errors:\n    response.write(\'\\n<script type="text/javascript">\\n\\t$(\\\'#planos\\\').toggleClass("active");\\n  \\t$(\\\'#novo_plano\\\').toggleClass("active");\\n  \\t$(\\\'#li-planos\\\').toggleClass("active");\\n  \\t$(\\\'#li-novo_plano\\\').toggleClass("active");\\n </script>\\n\', escape=False)\n    pass\nresponse.write(\'\\n\\n\\n\\n\\n<table id="myTable" class="tablesorter"> \\n<thead> \\n<tr> \\n    <th>Last Name</th> \\n    <th>First Name</th> \\n    <th>Email</th> \\n    <th>Due</th> \\n    <th>Web Site</th> \\n</tr> \\n</thead> \\n<tbody> \\n<tr> \\n    <td>Smith</td> \\n    <td>John</td> \\n    <td>jsmith@gmail.com</td> \\n    <td>$50.00</td> \\n    <td>http://www.jsmith.com</td> \\n</tr> \\n<tr> \\n    <td>Bach</td> \\n    <td>Frank</td> \\n    <td>fbach@yahoo.com</td> \\n    <td>$50.00</td> \\n    <td>http://www.frank.com</td> \\n</tr> \\n<tr> \\n    <td>Doe</td> \\n    <td>Jason</td> \\n    <td>jdoe@hotmail.com</td> \\n    <td>$100.00</td> \\n    <td>http://www.jdoe.com</td> \\n</tr> \\n<tr> \\n    <td>Conway</td> \\n    <td>Tim</td> \\n    <td>tconway@earthlink.net</td> \\n    <td>$50.00</td> \\n    <td>http://www.timconway.com</td> \\n</tr> \\n</tbody> \\n</table> \\n\\n\\n<table class="tablesorter">\\n\\t<thead>\\n\\t\\t<tr>\\n\\t\\t<th>NOME</th>\\n\\t\\t<th>SOBRENOME</th>\\n\\t\\t<th>IDADE</th>\\n\\t\\t</tr>\\n\\t</thead>\\n\\t<tbody>\\n\\t\\t<tr>\\n\\t\\t\\t<td>Amauri</td>\\n\\t\\t\\t<td>Rossetti</td>\\n\\t\\t\\t<td>42</td>\\n\\t\\t</tr>\\n\\t\\t<tr>\\n\\t\\t\\t<td>Ana Paula</td>\\n\\t\\t\\t<td>Santos</td>\\n\\t\\t\\t<td>43</td>\\n\\t\\t</tr>\\n\\t\\t<tr>\\n\\t\\t\\t<td>Fernanda</td>\\n\\t\\t\\t<td>Giovani</td>\\n\\t\\t\\t<td>14</td>\\n\\t\\t</tr>\\n\\t</tbody>\\n</table>\\n\\n\\n\\n\\n<table class="tablesorter table table-hover">\\n<thead>\\n\\t<tr>\\n\\t\\t<th>N\\xc3\\xbameros</th>\\n\\t</tr>\\n</thead>\\n\\t\\n<tbody>\\n\\t\', escape=False)\nfor plano in planos:\n    response.write(\'\\n\\t<tr>\\n\\t\\t<td>\', escape=False)\n    response.write(plano.prazo.strftime("%d/%m/%Y"))\n    response.write(\'</td>\\n\\t\\t\', escape=False)\n    faltando = plano.prazo - datetime.date.today()\n    response.write(\'\\n\\t\\t\', escape=False)\n    if  int(faltando.days) == 1:\n        response.write(\'\\n\\t\\t<td>\', escape=False)\n        response.write(\'FALTA %s DIA\' %(faltando.days))\n        response.write(\'</td>\\n\\t\\t\', escape=False)\n    elif int(faltando.days) == -1:\n        response.write(\'\\n\\t\\t<td>\', escape=False)\n        response.write(\'ATRASADO %s DIA\' %(faltando.days * -1))\n        response.write(\'</td>\\n\\t\\t\', escape=False)\n    elif int(faltando.days) == 0:\n        response.write(\'\\n\\t\\t<td>HOJE</td>\\n\\t\\t\', escape=False)\n    elif int(faltando.days) < -1:\n        response.write(\'\\n\\t\\t<td>\', escape=False)\n        response.write(\'ATRASADO %s DIAS\' %(faltando.days * -1))\n        response.write(\'</td>\\n\\t\\t\', escape=False)\n    else:\n        response.write(\'\\n\\t\\t<td>\', escape=False)\n        response.write(\'FALTAM %s DIAS\' %faltando.days)\n        response.write(\'</td>\\n\\t</tr>\\n\\t\', escape=False)\n        pass\n    response.write(\'\\n</tbody>\\n\\n</table>\\n\\n<!--     <script type="text/javascript" src="\', escape=False)\n    response.write(URL(\'static\',\'js/jquery-latest.js\'))\n    response.write(\'"></script>\\n    <script type="text/javascript" src="\', escape=False)\n    response.write(URL(\'static\',\'js/jquery.tablesorter.min.js\'))\n    response.write(\'"></script>\\n -->\\n<!-- \\n<script type="text/javascript">\\n    $(document).ready(function() \\n        { \\n            $(".tablesorter").tablesorter(); \\n        } \\n    ); \\n</script>\\n -->\', escape=False)\n    response.write(\'\\n        \', escape=False)\n    response.write(\'\\n      </div>\\n\\n      \', escape=False)\n    if right_sidebar_enabled:\n        response.write(\'\\n        <div class="col-md-3">\\n            \', escape=False)\n        response.write(\'\\n            <h3>Right Sidebar</h3>\\n            <p></p>\\n            \', escape=False)\n        response.write(\'\\n        </div>\\n      \', escape=False)\n        pass\n    response.write(\'\\n\\n    </div>\\n\\n    \', escape=False)\n    response.write(\' <!-- this is default footer -->      \\n    <footer class="footer">\\n      <div class="container-fluid">\\n        <div class="copyright pull-left">\', escape=False)\n    response.write(T(\'Copyright\'))\n    response.write(\' &#169; \', escape=False)\n    response.write(request.now.year)\n    response.write(\'</div>\\n          <div id="poweredBy" class="pull-right">\\n            \', escape=False)\n    response.write(T(\'Powered by\'))\n    response.write(\'\\n            <a href="http://www.web2py.com/">web2py</a>\\n          </div>\\n      </div>\\n    </footer>\\n    \', escape=False)\n    response.write(\'\\n    <!-- The javascript =============================== -->\\n    <script src="\', escape=False)\n    response.write(URL(\'static\',\'js/bootstrap.min.js\'))\n    response.write(\'"></script>\\n    <script src="\', escape=False)\n    response.write(URL(\'static\',\'js/web2py-bootstrap3.js\'))\n    response.write(\'"></script>\\n    \', escape=False)\n    response.write(\'\\n    \', escape=False)\n    if response.google_analytics_id:\n        response.write(\'\\n    <!-- Analytics ==================================== -->\\n    <script src="\', escape=False)\n        response.write(URL(\'static\',\'js/analytics.min.js\'))\n        response.write(\'"></script>\\n    <script type="text/javascript">\\n      analytics.initialize({\\n      \\\'Google Analytics\\\':{trackingId:\\\'\', escape=False)\n        response.write(response.google_analytics_id)\n        response.write("\'}\\n      });\\n    </script>\\n    ", escape=False)\n        pass\n    response.write(\'\\n    <!-- Share ============================y============ -->\\n    <script src="\', escape=False)\n    response.write(URL(\'static\',\'js/share.js\',vars=dict(static=URL(\'static\',\'images\'))))\n    response.write(\'"></script>\\n    <script type="text/javascript" src="\', escape=False)\n    response.write(URL(\'static\',\'js/scripts.js\'))\n    response.write(\'"></script>\\n\\n    <script type="text/javascript" src="\', escape=False)\n    response.write(URL(\'static\',\'js/jquery-latest.js\'))\n    response.write(\'"></script>\\n    <script type="text/javascript" src="\', escape=False)\n    response.write(URL(\'static\',\'js/jquery.tablesorter.min.js\'))\n    response.write(\'"></script>\\n\\n  </body>\\n</html>\\n\', escape=False)'
p7
sS'snapshot'
p8
(dp9
S'exception'
p10
(dp11
S'__module__'
p12
S"'gluon.rocket'"
p13
sS'__getslice__'
p14
S"<method-wrapper '__getslice__' of SocketTimeout object>"
p15
sS'__str__'
p16
S"<method-wrapper '__str__' of SocketTimeout object>"
p17
sS'__reduce__'
p18
S'<built-in method __reduce__ of SocketTimeout object>'
p19
sS'__dict__'
p20
S'{}'
p21
sS'__sizeof__'
p22
S'<built-in method __sizeof__ of SocketTimeout object>'
p23
sS'__weakref__'
p24
S'None'
p25
sS'__init__'
p26
S"<method-wrapper '__init__' of SocketTimeout object>"
p27
sS'__setattr__'
p28
S"<method-wrapper '__setattr__' of SocketTimeout object>"
p29
sS'__reduce_ex__'
p30
S'<built-in method __reduce_ex__ of SocketTimeout object>'
p31
sS'__new__'
p32
S'<built-in method __new__ of type object>'
p33
sS'__format__'
p34
S'<built-in method __format__ of SocketTimeout object>'
p35
sS'__class__'
p36
S"<class 'gluon.rocket.SocketTimeout'>"
p37
sS'__doc__'
p38
S"'Exception for when a socket times out between requests.'"
p39
sS'__getitem__'
p40
S"<method-wrapper '__getitem__' of SocketTimeout object>"
p41
sS'__setstate__'
p42
S'<built-in method __setstate__ of SocketTimeout object>'
p43
sS'__getattribute__'
p44
S"<method-wrapper '__getattribute__' of SocketTimeout object>"
p45
sS'args'
p46
S"('Socket timed out before request.',)"
p47
sS'__subclasshook__'
p48
S'<built-in method __subclasshook__ of type object>'
p49
sS'__unicode__'
p50
S'<built-in method __unicode__ of SocketTimeout object>'
p51
sS'__delattr__'
p52
S"<method-wrapper '__delattr__' of SocketTimeout object>"
p53
sS'__repr__'
p54
S"<method-wrapper '__repr__' of SocketTimeout object>"
p55
sS'__hash__'
p56
S"<method-wrapper '__hash__' of SocketTimeout object>"
p57
ssS'evalue'
p58
S'Socket timed out before request.'
p59
sS'frames'
p60
(lp61
(dp62
S'file'
p63
S'/home/amauri/web2py/gluon/rocket.py'
p64
sS'dump'
p65
(dp66
S'self'
p67
S'<WSGIWorker(Thread-12, started daemon 139971063162624)>'
p68
sS'conn'
p69
S'<gluon.rocket.Connection object>'
p70
sS'self.run_app'
p71
S'<bound method WSGIWorker.run_app of <WSGIWorker(Thread-12, started daemon 139971063162624)>>'
p72
ssS'lnum'
p73
I1337
sS'lines'
p74
(dp75
I1332
S'            # Enter connection serve loop'
p76
sI1333
S'            while True:'
p77
sI1334
S'                if __debug__:'
p78
sI1335
S"                    self.err_log.debug('Serving a request')"
p79
sI1336
S'                try:'
p80
sI1337
S'                    self.run_app(conn)'
p81
sI1338
S'                except:'
p82
sI1339
S'                    exc = sys.exc_info()'
p83
sI1340
S'                    handled = self._handleError(*exc)'
p84
sI1341
S'                    if handled:'
p85
ssS'call'
p86
S'(self=<WSGIWorker(Thread-12, started daemon 139971063162624)>)'
p87
sS'func'
p88
S'run'
p89
sa(dp90
g63
S'/home/amauri/web2py/gluon/rocket.py'
p91
sg65
(dp92
S'self'
p93
S'<WSGIWorker(Thread-12, started daemon 139971063162624)>'
p94
sS'self.environ'
p95
S"{'HTTP_ACCEPT': 'text/html,application/xhtml+xml,application/xml;q=0.9,image/webp,*/*;q=0.8', 'HTTP_ACCEPT_ENCODING': 'gzip, deflate, sdch, br', 'HTTP_ACCEPT_LANGUAGE': 'pt-BR,pt;q=0.8,en-US;q=0.6,en;q=0.4', 'HTTP_CACHE_CONTROL': 'max-age=0', 'HTTP_CONNECTION': 'keep-alive', 'HTTP_COOKIE': 'csrftoken=zUg0GfSOAJg9xFGMkkpYCcLbsMDDmksZypHQYZ...ao=127.0.0.1-6f549c8e-0e30-48f6-a03c-84706719cfad', 'HTTP_HOST': 'localhost:8000', 'HTTP_UPGRADE_INSECURE_REQUESTS': '1', 'HTTP_USER_AGENT': 'Mozilla/5.0 (X11; Linux x86_64) AppleWebKit/537....ML, like Gecko) Chrome/56.0.2924.87 Safari/537.36', 'PATH_INFO': '/plano_de_acao/', ...}"
p96
sS'sock_file'
p97
S'<socket._fileobject object>'
p98
sS'environ'
p99
S'undefined'
p100
sS'self.build_environ'
p101
S'<bound method WSGIWorker.build_environ of <WSGIWorker(Thread-12, started daemon 139971063162624)>>'
p102
sS'conn'
p103
S'<gluon.rocket.Connection object>'
p104
ssg73
I1830
sg74
(dp105
I1825
S'        else:'
p106
sI1826
S'            sock_file = conn.makefile(BUF_SIZE)'
p107
sI1827
S''
sI1828
S'        try:'
p108
sI1829
S'            # Read the headers and build our WSGI environment'
p109
sI1830
S'            self.environ = environ = self.build_environ(sock_file, conn)'
p110
sI1831
S''
sI1832
S'            # Handle 100 Continue'
p111
sI1833
S"            if environ.get('HTTP_EXPECT', '') == '100-continue':"
p112
sI1834
S"                res = environ['SERVER_PROTOCOL'] + ' 100 Continue\\r\\n\\r\\n'"
p113
ssg86
S'(self=<WSGIWorker(Thread-12, started daemon 139971063162624)>, conn=<gluon.rocket.Connection object>)'
p114
sg88
S'run_app'
p115
sa(dp116
g63
S'/home/amauri/web2py/gluon/rocket.py'
p117
sg65
(dp118
S'sock_file'
p119
S'<socket._fileobject object>'
p120
sS'self.read_request_line'
p121
S'<bound method WSGIWorker.read_request_line of <W...rker(Thread-12, started daemon 139971063162624)>>'
p122
sS'self'
p123
S'<WSGIWorker(Thread-12, started daemon 139971063162624)>'
p124
sS'request'
p125
g100
ssg73
I1650
sg74
(dp126
I1645
S'                                      "wsgiorg.futures": executor.futures})'
p127
sI1646
S''
sI1647
S'    def build_environ(self, sock_file, conn):'
p128
sI1648
S'        """ Build the execution environment. """'
p129
sI1649
S'        # Grab the request line'
p130
sI1650
S'        request = self.read_request_line(sock_file)'
p131
sI1651
S''
sI1652
S'        # Copy the Base Environment'
p132
sI1653
S'        environ = self.base_environ.copy()'
p133
sI1654
S''
ssg86
S'(self=<WSGIWorker(Thread-12, started daemon 139971063162624)>, sock_file=<socket._fileobject object>, conn=<gluon.rocket.Connection object>)'
p134
sg88
S'build_environ'
p135
sa(dp136
g63
S'/home/amauri/web2py/gluon/rocket.py'
p137
sg65
(dp138
S'global SocketTimeout'
p139
S"<class 'gluon.rocket.SocketTimeout'>"
p140
ssg73
I1401
sg74
(dp141
I1396
S''
sI1397
S'                d = sock_file.readline()'
p142
sI1398
S'                if PY3K:'
p143
sI1399
S"                    d = d.decode('ISO-8859-1')"
p144
sI1400
S'        except socket.timeout:'
p145
sI1401
S"            raise SocketTimeout('Socket timed out before request.')"
p146
sI1402
S'        except TypeError:'
p147
sI1403
S'            raise SocketClosed('
p148
sI1404
S"                'SSL bug caused closure of socket.  See '"
p149
sI1405
S'                \'"https://groups.google.com/d/topic/web2py/P_Gw0JxWzCs".\')'
p150
ssg86
S'(self=<WSGIWorker(Thread-12, started daemon 139971063162624)>, sock_file=<socket._fileobject object>)'
p151
sg88
S'read_request_line'
p152
sasS'pyver'
p153
S'Python 2.7.12: /usr/bin/python (prefix: /usr)'
p154
sS'etype'
p155
S"<class 'gluon.rocket.SocketTimeout'>"
p156
sS'date'
p157
S'Sun Mar  5 13:04:40 2017'
p158
sS'locals'
p159
(dp160
S'sock_file'
p161
S'<socket._fileobject object>'
p162
sS'self'
p163
S'<WSGIWorker(Thread-12, started daemon 139971063162624)>'
p164
sssS'traceback'
p165
S'Traceback (most recent call last):\n  File "/home/amauri/web2py/gluon/rocket.py", line 1337, in run\n    self.run_app(conn)\n  File "/home/amauri/web2py/gluon/rocket.py", line 1830, in run_app\n    self.environ = environ = self.build_environ(sock_file, conn)\n  File "/home/amauri/web2py/gluon/rocket.py", line 1650, in build_environ\n    request = self.read_request_line(sock_file)\n  File "/home/amauri/web2py/gluon/rocket.py", line 1401, in read_request_line\n    raise SocketTimeout(\'Socket timed out before request.\')\nSocketTimeout: Socket timed out before request.\n'
p166
s.