(dp1
S'output'
p2
S"<type 'exceptions.AttributeError'> 'Auth' object has no attribute 'bem'"
p3
sS'layer'
p4
S'/home/amauri/web2py/applications/plano_de_acao/views/default/planos_de_acao.html'
p5
sS'code'
p6
S'response.write(\'<!DOCTYPE html>\\n<!--[if (gt IE 9)|!(IE)]><!--> <html class="no-js" lang="\', escape=False)\nresponse.write(T.accepted_language or \'en\')\nresponse.write(\'"> <!--<![endif]-->\\n  <head>\\n    <meta charset="utf-8">\\n    <!-- www.phpied.com/conditional-comments-block-downloads/ -->\\n    <!-- Always force latest IE rendering engine\\n         (even in intranet) & Chrome Frame\\n         Remove this if you use the .htaccess -->\\n    <meta http-equiv="X-UA-Compatible" content="IE=edge\', escape=False)\nresponse.write(not request.is_local and \',chrome=1\' or \'\')\nresponse.write(\'">\\n    <!--  Mobile Viewport Fix\\n          j.mp/mobileviewport & davidbcalhoun.com/2010/viewport-metatag\\n          device-width: Occupy full width of the screen in its current orientation\\n          initial-scale = 1.0 retains dimensions instead of zooming out if page height > device height\\n          user-scalable = yes allows the user to zoom in -->\\n    <meta name="viewport" content="width=device-width, initial-scale=1.0">\\n    <title>\', escape=False)\nresponse.write(response.title or request.application)\nresponse.write(\'</title>\\n    <!-- http://dev.w3.org/html5/markup/meta.name.html -->\\n    <meta name="application-name" content="\', escape=False)\nresponse.write(request.application)\nresponse.write(\'">\\n    <!-- Speaking of Google, don\\\'t forget to set your site up:\\n         http://google.com/webmasters -->\\n    <meta name="google-site-verification" content="">\\n    <!-- include stylesheets -->\\n    <link rel="stylesheet" href="\', escape=False)\nresponse.write(URL(\'static\',\'css/bootstrap.min.css\'))\nresponse.write(\'"/>\\n    <link rel="stylesheet" href="\', escape=False)\nresponse.write(URL(\'static\',\'css/web2py-bootstrap3.css\'))\nresponse.write(\'"/>\\n    <link rel="shortcut icon" href="\', escape=False)\nresponse.write(URL(\'static\',\'images/favicon.ico\'))\nresponse.write(\'" type="image/x-icon">\\n    <link rel="apple-touch-icon" href="\', escape=False)\nresponse.write(URL(\'static\',\'images/favicon.png\'))\nresponse.write(\'">\\n    <!-- All JavaScript at the bottom, except for Modernizr which enables\\n         HTML5 elements & feature detects -->\\n    <script src="\', escape=False)\nresponse.write(URL(\'static\',\'js/modernizr-2.8.3.min.js\'))\nresponse.write(\'"></script>\\n\\n    <!-- jQuery e Tablesorter -->\\n    <!-- <script type="text/javascript" src="\', escape=False)\nresponse.write(URL(\'static\',\'js/scripts.js\'))\nresponse.write(\'"></script> -->\\n    \\n    <script type="text/javascript" src="\', escape=False)\nresponse.write(URL(\'static\',\'js/jquery-latest.js\'))\nresponse.write(\'"></script>\\n    <script type="text/javascript" src="\', escape=False)\nresponse.write(URL(\'static\',\'js/jquery.tablesorter.min.js\'))\nresponse.write(\'"></script>\\n\\n    <script type="text/javascript">\\n    $(document).ready(function() \\n        { \\n            $(".table").tablesorter(); \\n        //     $("#teste").change(function() {\\n        //     var escolha = $("#teste option:selected").text();    // mostrar\\xc3\\xa1 em resposta o item escolhido\\n        //     $("#resposta").text("Escolhido: " + escolha);\\n        // });\\n        } \\n\\n    ); \\n    </script>\\n    \\n    \\n    <style>\\n      .imagem-index{text-align: center; padding-top: 40px;}\\n      .fonte{font-size: 20px; padding: 22px; margin: 0px 80px;}\\n      .fonte li{padding-left: 35px; list-style-type: none;}\\n      .fonte a:hover{color: #274264;}\\n      .fonte a{text-decoration: none;}\\n      .cor-icon-nav{color: #309EF5;}\\n      .bem-vindo{padding-top: 6px; font-size: 14px;}\\n      th, td{cursor: pointer;}\\n      #logoBest{padding: 8px;}\\n      .cor{background-color: #D7D9E2;}\\n      .desce{padding-top: 20px;}\\n      .titulo{color: #309EF5;}\\n    </style>\\n\\n    <script type="text/javascript">\\n    $(document).ready(function(){\\n        $(\\\'.link\\\').click(function(){\\n            window.location = $(this).attr(\\\'href\\\');\\n            return false;\\n        });\\n        // jQuery(\\\'#concluidos\\\').click(function() {\\n        //   ajax(\\\'\', escape=False)\nresponse.write(URL(\'funcoes\', \'concluidos\'))\nresponse.write(\'\\\')\\n        //   // return false;\\n        // });\\n    });\\n    </script>\\n\\n\\n    <!--[if lt IE 9]>\\n        <script src="\', escape=False)\nresponse.write(URL(\'static\',\'js/respond-1.4.2.min.js\'))\nresponse.write(\'"></script>\\n        <![endif]-->\\n    <!-- Favicons -->\\n    \', escape=False)\nresponse.write(\'<script type="text/javascript"><!--\\n    // These variables are used by the web2py_ajax_init function in web2py_ajax.js (which is loaded below).\\n    var w2p_ajax_confirm_message = "\', escape=False)\nresponse.write(T(\'Are you sure you want to delete this object?\'))\nresponse.write(\'";\\n    var w2p_ajax_disable_with_message = "\', escape=False)\nresponse.write(T(\'Working...\'))\nresponse.write(\'";\\n    var w2p_ajax_date_format = "\', escape=False)\nresponse.write(T(\'%Y-%m-%d\'))\nresponse.write(\'";\\n    var w2p_ajax_datetime_format = "\', escape=False)\nresponse.write(T(\'%Y-%m-%d %H:%M:%S\'))\nresponse.write(\'";\\n    var ajax_error_500 = \\\'\', escape=False)\nresponse.write(T.M(\'An error occured, please [[reload %s]] the page\') % URL(args=request.args, vars=request.get_vars))\nresponse.write("\'\\n    //--></script>\\n", escape=False)\nresponse.files.insert(0,URL(\'static\',\'js/jquery.js\'))\nresponse.files.insert(1,URL(\'static\',\'css/calendar.css\'))\nresponse.files.insert(2,URL(\'static\',\'js/calendar.js\'))\nresponse.files.insert(3,URL(\'static\',\'js/web2py.js\'))\nresponse.include_meta()\nresponse.include_files()\nresponse.write(\'\\n\', escape=False)\nresponse.write(\' <!-- this includes jquery.js, calendar.js/.css and web2py.js -->\\n    \', escape=False)\nresponse.write(\'\\n    \', escape=False)\n# using sidebars need to know what sidebar you want to use\nmc0 = \'col-md-12\'\nmc1 = \'col-md-9\'\nmc2 = \'col-md-6\'\nleft_sidebar_enabled = globals().get(\'left_sidebar_enabled\', False)\nright_sidebar_enabled = globals().get(\'right_sidebar_enabled\', False)\nmiddle_column = {0: mc0, 1: mc1, 2: mc2}[\n(left_sidebar_enabled and 1 or 0)+(right_sidebar_enabled and 1 or 0)]\nresponse.write(\'\\n\\n  </head>\\n  <body>\\n    <!--[if lt IE 8]><p class="browserupgrade">You are using an <strong>outdated</strong> browser. Please <a href="http://browsehappy.com/">upgrade your browser</a> to improve your experience.</p><![endif]-->\\n    <div class="w2p_flash alert alert-dismissable">\', escape=False)\nresponse.write(response.flash or \'\')\nresponse.write(\'</div>\\n    <!-- Navbar ======================================= -->\\n    <nav class="navbar cor navbar-fixed-top" role="navigation">\\n      <div class="container-fluid">\\n        <div class="navbar-header">\\n          <button type="button" class="navbar-toggle" data-toggle="collapse" data-target=".navbar-collapse">\\n            <span class="sr-only">Toggle navigation</span>\\n            <span class="icon-bar"></span>\\n            <span class="icon-bar"></span>\\n            <span class="icon-bar"></span>\\n          </button>\\n          <div id="logoBest">\\n          \', escape=False)\nresponse.write(response.logo or \'\')\nresponse.write(\'\\n          </div>\\n        </div>\\n        <div class="collapse navbar-collapse navbar-ex1-collapse">\\n          <ul class="nav navbar-nav navbar-right bem-vindo">\\n            \', escape=False)\nresponse.write(\'auth\' in globals() and auth.bem-vindo(\'Welcome\',mode=\'dropdown\') or \'\')\nresponse.write(\'\\n          </ul>\\n          <ul class="navbar-nav fonte">\\n            <li class="active"><span class="cor-icon-nav"><img src="\', escape=False)\nresponse.write(URL(\'static\', \'images/glyphicons-30-notes-2-azul-escuro.png\'))\nresponse.write(\'" alt=""></span><a href="\', escape=False)\nresponse.write(URL(\'planos_de_acao\'))\nresponse.write(\'"> Planos de A\\xc3\\xa7\\xc3\\xa3o</a></li>\\n            <li><span class="cor-icon-nav"><img src="\', escape=False)\nresponse.write(URL(\'static\', \'images/glyphicons-78-headset-azul-escuro.png\'))\nresponse.write(\'" alt=""></span><a href="#"> Atendimentos</a></li>\\n            <li><span class="cor-icon-nav"><img src="\', escape=False)\nresponse.write(URL(\'static\', \'images/glyphicons-45-keys-azul-escuro.png\'))\nresponse.write(\'" alt=""></span><a href="#"> Licen\\xc3\\xa7as</a></li>\\n            <!-- <li><a href="#">Em Breve</a></li> -->\\n          </ul>\\n        </div>\\n      </div>\\n    </nav>\\n    <!-- Masthead ===================================== -->    \\n    \', escape=False)\nresponse.write(\'\\n    \', escape=False)\nresponse.write(\'\\n    <!-- Main ========================================= -->\\n    <!-- Begin page content -->\\n    <div class="container-fluid main-container">\\n      \', escape=False)\nif left_sidebar_enabled:\n    response.write(\'\\n        <div class="col-md-3 left-sidebar">\\n            \', escape=False)\n    response.write(\'\\n            <h3>Left Sidebar</h3>\\n            <p></p>\\n            \', escape=False)\n    response.write(\'\\n        </div>\\n      \', escape=False)\n    pass\nresponse.write(\'\\n\\n      <div class="\', escape=False)\nresponse.write(middle_column)\nresponse.write(\'">\\n        \', escape=False)\nresponse.write(\'\\n        \', escape=False)\nresponse.write(\'\\n\\n<!-- <div class="row">\\n\\t<div class="col-xs-12 col-lg-3">\\n\\t\\t<a href="\', escape=False)\nresponse.write(URL(\'novo_plano\'))\nresponse.write(\'" class="btn btn-primary">Criar novo plano</a><br /><br />\\n\\t</div>\\n</div>\\n -->\\n\\n<h1 class="titulo"><b>Planos de A\\xc3\\xa7\\xc3\\xa3o</b></h1>\\n<br>\\n\\n<ul class="nav nav-tabs">\\n\\t<li id="li-planos" class="active"><a data-toggle="tab" href="#planos">Planos</a></li>\\n\\t<li id="li-concluidos"><a data-toggle="tab" href="#concluidos">Conclu\\xc3\\xaddos</a></li>\\n\\t<li id="li-novo_plano"><a data-toggle="tab" href="#novo_plano">Novo Plano</a></li>\\n</ul>\\n\\n<!-- <br />\\n\\t<div id="resposta"></div><br/><br/>\\n\\t<div id="formulario">\\n\\t\\t<form action="">\\n\\t\\t\\t<fieldset>\\n\\t\\t\\t\\t<legend>Formul\\xc3\\xa1rio</legend>\\n\\t\\t\\t\\t<div>\\n\\t\\t\\t\\t\\t<label for="texto">Texto</label>\\n\\t\\t\\t\\t\\t<input id="texto" type="text"><br/><br/>\\n\\t\\t\\t\\t\\tSelecione\\n\\t\\t\\t\\t\\t<select id="teste" name="paises">\\n\\t\\t\\t\\t\\t  <option value="">Pa\\xc3\\xadses</option>\\n\\t\\t\\t\\t\\t  <option value="brasil">Brasil</option>\\n\\t\\t\\t\\t\\t  <option value="china">China</option>\\n\\t\\t\\t\\t\\t  <option value="eua">EUA</option>\\n\\t\\t\\t\\t\\t  <option value="japao">Jap\\xc3\\xa3o</option>\\n\\t\\t\\t\\t\\t</select><br/><br/>\\n\\t\\t\\t\\t\\tTextarea<br/>\\n\\t\\t\\t\\t\\t<textarea name="message" rows="10" cols="30"></textarea><br/><br/>\\n\\t\\t\\t\\t\\t<button id="enviar">Submit</button>\\n\\t\\t\\t\\t</div>\\n\\t\\t\\t</fieldset>\\n\\t\\t</form>\\n\\t</div><br/><br/>\\n\\t<button>Eventos de Teclado</button>\\t\\n<br /><br />\\n -->\\n<div class="tab-content">\\n\\t<div id="planos" class="row tab-pane fade in active">\\n\\t\\t<div class="col-xs-12">\\n\\t\\t\\t<table class="table table-hover">\\n\\t\\t\\t<thead>\\n\\t\\t\\t\\t<tr class="active">\\n\\t\\t\\t\\t\\t<th><button type="button" class="btn btn-active btn-sm">Setor \\n\\t\\t\\t\\t\\t<span class="glyphicon glyphicon-triangle-bottom" aria-hidden="true"></span></button></th>\\n\\t\\t\\t\\t\\t<th><button type="button" class="btn btn-active btn-sm">T\\xc3\\xadtulo \\n\\t\\t\\t\\t\\t<span class="glyphicon glyphicon-triangle-bottom" aria-hidden="true"></span></button></th>\\n\\t\\t\\t\\t\\t<th><button type="button" class="btn btn-active btn-sm">Descri\\xc3\\xa7\\xc3\\xa3o  \\n\\t\\t\\t\\t\\t<span class="glyphicon glyphicon-triangle-bottom" aria-hidden="true"></span></button></th>\\n\\t\\t\\t\\t\\t<th><button type="button" class="btn btn-active btn-sm">Plano \\n\\t\\t\\t\\t\\t<span class="glyphicon glyphicon-triangle-bottom" aria-hidden="true"></span></button></th>\\n\\t\\t\\t\\t\\t<th><button type="button" class="btn btn-active btn-sm">A\\xc3\\xa7\\xc3\\xa3o \\n\\t\\t\\t\\t\\t<span class="glyphicon glyphicon-triangle-bottom" aria-hidden="true"></span></button></th>\\n\\t\\t\\t\\t\\t<th><button type="button" class="btn btn-active btn-sm">Prazo \\n\\t\\t\\t\\t\\t<span class="glyphicon glyphicon-triangle-bottom" aria-hidden="true"></span></button></th>\\n\\t\\t\\t\\t\\t<th><button type="button" class="btn btn-active btn-sm">Dias\\n\\t\\t\\t\\t\\t<span class="glyphicon glyphicon-triangle-bottom" aria-hidden="true"></span></button></th>\\n\\t\\t\\t\\t\\t<th><button type="button" class="btn btn-active btn-sm">Conclu\\xc3\\xaddo \\n\\t\\t\\t\\t\\t<span class="glyphicon glyphicon-triangle-bottom" aria-hidden="true"></span></button></th>\\n\\t\\t\\t\\t</tr>\\n\\t\\t\\t</thead>\\n\\t\\t\\t<tbody>\\n\\t\\t\\t\\t\', escape=False)\nfor plano in planos:\n    response.write(\'\\n\\t\\t\\t\\t<tr class="link" href="\', escape=False)\n    response.write(URL(\'editar_plano\', args=plano.id))\n    response.write(\'">\\n\\t\\t\\t\\t\\t<td>\', escape=False)\n    response.write(\'%(setor)s\' %(plano.depto))\n    response.write(\'</td>\\n\\t\\t\\t\\t\\t<td>\', escape=False)\n    response.write(\'%(problema)s\' %(plano.titulo))\n    response.write(\'</td>\\n\\t\\t\\t\\t\\t<td>\', escape=False)\n    response.write(plano.descricao)\n    response.write(\'</td>\\n\\t\\t\\t\\t\\t<td>\', escape=False)\n    response.write(plano.plano)\n    response.write(\'</td>\\n\\t\\t\\t\\t\\t<td>\', escape=False)\n    response.write(plano.acao)\n    response.write(\'</td>\\n\\t\\t\\t\\t\\t<td>\', escape=False)\n    response.write(plano.prazo.strftime("%d/%m/%Y"))\n    response.write(\'</td>\\n\\t\\t\\t\\t\\t\', escape=False)\n    faltando = plano.prazo - datetime.date.today()\n    response.write(\'\\n\\t\\t\\t\\t\\t\', escape=False)\n    if  int(faltando.days) == 1:\n        response.write(\'\\n\\t\\t\\t\\t\\t<td>\', escape=False)\n        response.write(\'FALTA %s DIA\' %(faltando.days))\n        response.write(\'</td>\\n\\t\\t\\t\\t\\t\', escape=False)\n    elif int(faltando.days) == -1:\n        response.write(\'\\n\\t\\t\\t\\t\\t<td>\', escape=False)\n        response.write(\'ATRASADO %s DIA\' %(faltando.days * -1))\n        response.write(\'</td>\\n\\t\\t\\t\\t\\t\', escape=False)\n    elif int(faltando.days) == 0:\n        response.write(\'\\n\\t\\t\\t\\t\\t<td>HOJE</td>\\n\\t\\t\\t\\t\\t\', escape=False)\n    elif int(faltando.days) < -1:\n        response.write(\'\\n\\t\\t\\t\\t\\t<td>\', escape=False)\n        response.write(\'ATRASADO %s DIAS\' %(faltando.days * -1))\n        response.write(\'</td>\\n\\t\\t\\t\\t\\t\', escape=False)\n    else:\n        response.write(\'\\n\\t\\t\\t\\t\\t<td>\', escape=False)\n        response.write(\'FALTAM %s DIAS\' %faltando.days)\n        response.write(\'</td>\\n\\t\\t\\t\\t\\t\', escape=False)\n        pass\n    response.write(\'\\n\\t\\t\\t\\t\\t<td>\', escape=False)\n    response.write(plano.concluido)\n    response.write(\'</td>\\n\\t\\t\\t\\t</tr>\\n\\t\\t\\t\\t\', escape=False)\n    pass\nresponse.write(\'\\n\\t\\t\\t</tbody>\\n\\t\\t\\t</table>\\n\\t\\t</div>\\n\\t</div>\\n\\n\\n\\t<div id="concluidos" class="row tab-pane fade in">\\n\\t\\t<div class="col-xs-12">\\n\\t\\t\\t<table class="table table-hover">\\n\\t\\t\\t<thead>\\n\\t\\t\\t\\t<tr class="active">\\n\\t\\t\\t\\t\\t<th><button type="button" class="btn btn-active btn-sm">Setor \\n\\t\\t\\t\\t\\t<span class="glyphicon glyphicon-triangle-bottom" aria-hidden="true"></span></button></th>\\n\\t\\t\\t\\t\\t<th><button type="button" class="btn btn-active btn-sm">T\\xc3\\xadtulo \\n\\t\\t\\t\\t\\t<span class="glyphicon glyphicon-triangle-bottom" aria-hidden="true"></span></button></th>\\n\\t\\t\\t\\t\\t<th><button type="button" class="btn btn-active btn-sm">Descri\\xc3\\xa7\\xc3\\xa3o  \\n\\t\\t\\t\\t\\t<span class="glyphicon glyphicon-triangle-bottom" aria-hidden="true"></span></button></th>\\n\\t\\t\\t\\t\\t<th><button type="button" class="btn btn-active btn-sm">Plano \\n\\t\\t\\t\\t\\t<span class="glyphicon glyphicon-triangle-bottom" aria-hidden="true"></span></button></th>\\n\\t\\t\\t\\t\\t<th><button type="button" class="btn btn-active btn-sm">A\\xc3\\xa7\\xc3\\xa3o \\n\\t\\t\\t\\t\\t<span class="glyphicon glyphicon-triangle-bottom" aria-hidden="true"></span></button></th>\\n\\t\\t\\t\\t\\t<th><button type="button" class="btn btn-active btn-sm">In\\xc3\\xadcio \\n\\t\\t\\t\\t\\t<span class="glyphicon glyphicon-triangle-bottom" aria-hidden="true"></span></button></th>\\n\\t\\t\\t\\t\\t<th><button type="button" class="btn btn-active btn-sm">T\\xc3\\xa9rmino \\n\\t\\t\\t\\t\\t<span class="glyphicon glyphicon-triangle-bottom" aria-hidden="true"></span></button></th>\\n\\t\\t\\t\\t\\t<th><button type="button" class="btn btn-active btn-sm">Conclu\\xc3\\xaddo \\n\\t\\t\\t\\t\\t<span class="glyphicon glyphicon-triangle-bottom" aria-hidden="true"></span></button></th>\\n\\t\\t\\t\\t</tr>\\n\\t\\t\\t</thead>\\n\\t\\t\\t<tbody>\\n\\t\\t\\t\\t\', escape=False)\nfor concluido in concluidos:\n    response.write(\'\\n\\t\\t\\t\\t<tr class="link" href="\', escape=False)\n    response.write(URL(\'ver_concluido\', args=concluido.id))\n    response.write(\'">\\n\\t\\t\\t\\t\\t<td>\', escape=False)\n    response.write(\'%(setor)s\' %(concluido.depto))\n    response.write(\'</td>\\n\\t\\t\\t\\t\\t<td>\', escape=False)\n    response.write(\'%(problema)s\' %(concluido.titulo))\n    response.write(\'</td>\\n\\t\\t\\t\\t\\t<td>\', escape=False)\n    response.write(concluido.descricao)\n    response.write(\'</td>\\n\\t\\t\\t\\t\\t<td>\', escape=False)\n    response.write(concluido.plano)\n    response.write(\'</td>\\n\\t\\t\\t\\t\\t<td>\', escape=False)\n    response.write(concluido.acao)\n    response.write(\'</td>\\n\\t\\t\\t\\t\\t<td>\', escape=False)\n    response.write(concluido.created_on)\n    response.write(\'</td>\\n\\t\\t\\t\\t\\t<td>\', escape=False)\n    response.write(concluido.modified_on)\n    response.write(\'</td>\\n\\t\\t\\t\\t\\t<td>\', escape=False)\n    response.write(concluido.concluido)\n    response.write(\'</td>\\n\\t\\t\\t\\t\\t\', escape=False)\n    pass\nresponse.write(\'\\n\\t\\t\\t\\t</tr>\\n\\t\\t\\t\\t\', escape=False)\npass\nresponse.write(\'\\n\\t\\t\\t</tbody>\\n\\t\\t\\t</table>\\n\\t\\t</div>\\n\\t</div>\\n\\n\\t<div id="novo_plano" class="row tab-pane fade in">\\n\\t\\t<div class="col-xs-12">\\n\\t\\t\\t\', escape=False)\nresponse.write(form.custom.begin)\nresponse.write(\'\\n\\t\\t\\t<div class="col-xs-3 col-lg-3">\\n\\t\\t\\t\\t<br />\\n\\t\\t\\t\\t\', escape=False)\nform.elements(\'#plano_depto\')[0][\'class\']=\'form-control\'\nresponse.write(\'\\n\\t\\t\\t\\t\', escape=False)\nform.elements(\'#plano_depto\')[0]\nresponse.write(\'\\n\\t\\t\\t\\t\', escape=False)\nresponse.write(form.custom.label.depto)\nresponse.write(\'\\n\\t\\t\\t\\t\', escape=False)\nresponse.write(form.custom.widget.depto)\nresponse.write(\'\\n\\t\\t\\t\\t<br />\\n\\t\\t\\t\\t\', escape=False)\nform.elements(\'#plano_titulo\')[0][\'class\']=\'form-control\'\nresponse.write(\'\\n\\t\\t\\t\\t\', escape=False)\nform.elements(\'#plano_titulo\')[0]\nresponse.write(\'\\n\\t\\t\\t\\t\', escape=False)\nresponse.write(form.custom.label.titulo)\nresponse.write(\'\\n\\t\\t\\t\\t\', escape=False)\nresponse.write(form.custom.widget.titulo)\nresponse.write(\'\\n\\t\\t\\t\\t<br />\\n\\t\\t\\t\\t\', escape=False)\nform.elements(\'#plano_prazo\')[0][\'class\']=\'form-control\'\nresponse.write(\'\\n\\t\\t\\t\\t\', escape=False)\nform.elements(\'#plano_prazo\')[0][\'_placeholder\']=\'PRAZO\'\nresponse.write(\'\\n\\t\\t\\t\\t\', escape=False)\nresponse.write(form.custom.label.prazo)\nresponse.write(\'\\n\\t\\t\\t\\t\', escape=False)\nresponse.write(form.custom.widget.prazo)\nresponse.write(\'\\n\\t\\t\\t\\t<br />\\n\\t\\t\\t\\t<div class="col-xs-12" style="padding-left: 0px;">\\n\\t\\t\\t\\t\\t<div class="col-xs-4">\\n\\t\\t\\t\\t\\t\\t\', escape=False)\nresponse.write(form.custom.label.concluido)\nresponse.write(\'\\n\\t\\t\\t\\t\\t\\t\', escape=False)\nresponse.write(form.custom.widget.concluido)\nresponse.write(\'\\n\\t\\t\\t\\t\\t</div>\\n\\t\\t\\t\\t\\t<div class="desce col-xs-4">\\n\\t\\t\\t\\t\\t\\t\', escape=False)\nform.element(_type=\'submit\')[\'_style\']=\'border-radius:5px;\'\nresponse.write(\'\\n\\t\\t\\t\\t\\t\\t\', escape=False)\nresponse.write(form.custom.submit)\nresponse.write(\'\\n\\t\\t\\t\\t\\t</div>\\n\\t\\t\\t\\t\\t<div class="desce col-xs-4">\\n\\t\\t\\t\\t\\t\\t\', escape=False)\nresponse.write(button)\nresponse.write(\'\\n\\t\\t\\t\\t\\t</div>\\n\\t\\t\\t\\t</div>\\n\\t\\t\\t</div>\\n\\t\\t\\t<br />\\n\\t\\t\\t<div class="col-xs-3 col-lg-3">\\n\\t\\t\\t\\t\', escape=False)\nform.elements(\'#plano_descricao\')[0][\'_style\']=\'height: 300px;\'\nresponse.write(\'\\n\\t\\t\\t\\t\', escape=False)\nform.elements(\'#plano_descricao\')[0][\'class\']=\'form-control\'\nresponse.write(\'\\n\\t\\t\\t\\t\', escape=False)\nform.elements(\'#plano_descricao\')[0][\'_placeholder\']=\'DESCRI\xc3\x87\xc3\x83O\'\nresponse.write(\'\\n\\t\\t\\t\\t\', escape=False)\nresponse.write(form.custom.label.descricao)\nresponse.write(\'\\n\\t\\t\\t\\t\', escape=False)\nresponse.write(form.custom.widget.descricao)\nresponse.write(\'\\n\\t\\t\\t</div>\\n\\t\\t\\t<div class="col-xs-3 col-lg-3">\\n\\t\\t\\t\\t\', escape=False)\nform.elements(\'#plano_plano\')[0][\'class\']=\'form-control\'\nresponse.write(\'\\n\\t\\t\\t\\t\', escape=False)\nform.elements(\'#plano_plano\')[0][\'_style\']=\'height: 300px;\'\nresponse.write(\'\\n\\t\\t\\t\\t\', escape=False)\nform.elements(\'#plano_plano\')[0][\'_placeholder\']=\'PLANO\'\nresponse.write(\'\\n\\t\\t\\t\\t\', escape=False)\nresponse.write(form.custom.label.plano)\nresponse.write(\'\\n\\t\\t\\t\\t\', escape=False)\nresponse.write(form.custom.widget.plano)\nresponse.write(\'\\n\\t\\t\\t</div>\\n\\t\\t\\t<div class="col-xs-3 col-lg-3">\\n\\t\\t\\t\\t\', escape=False)\nform.elements(\'#plano_acao\')[0][\'class\']=\'form-control\'\nresponse.write(\'\\n\\t\\t\\t\\t\', escape=False)\nform.elements(\'#plano_acao\')[0][\'_style\']=\'height: 300px;\'\nresponse.write(\'\\n\\t\\t\\t\\t\', escape=False)\nform.elements(\'#plano_acao\')[0][\'_placeholder\']=\'A\xc3\x87\xc3\x83O\'\nresponse.write(\'\\n\\t\\t\\t\\t\', escape=False)\nresponse.write(form.custom.label.acao)\nresponse.write(\'\\n\\t\\t\\t\\t\', escape=False)\nresponse.write(form.custom.widget.acao)\nresponse.write(\'\\n\\t\\t\\t</div>\\n\\n\\n\\t\\t\\t\', escape=False)\nresponse.write(form.custom.end)\nresponse.write(\'\\n\\t\\t</div>\\n\\t</div>\\n</div>\\n\\n<!-- <a href="\', escape=False)\nresponse.write(URL(\'novo_plano\'))\nresponse.write(\'" class="btn btn-primary">Criar novo plano</a> -->\\n\\n\', escape=False)\nif form.errors:\n    response.write(\'\\n<script type="text/javascript">\\n\\t$(\\\'#planos\\\').toggleClass("active");\\n  \\t$(\\\'#novo_plano\\\').toggleClass("active");\\n  \\t$(\\\'#li-planos\\\').toggleClass("active");\\n  \\t$(\\\'#li-novo_plano\\\').toggleClass("active");\\n </script>\\n\', escape=False)\n    pass\nresponse.write(\'\\n\\n\\n\\n\\n<!--     <script type="text/javascript" src="\', escape=False)\nresponse.write(URL(\'static\',\'js/jquery-latest.js\'))\nresponse.write(\'"></script>\\n    <script type="text/javascript" src="\', escape=False)\nresponse.write(URL(\'static\',\'js/jquery.tablesorter.min.js\'))\nresponse.write(\'"></script>\\n -->\\n<!-- \\n<script type="text/javascript">\\n    $(document).ready(function() \\n        { \\n            $(".tablesorter").tablesorter(); \\n        } \\n    ); \\n</script>\\n -->\', escape=False)\nresponse.write(\'\\n        \', escape=False)\nresponse.write(\'\\n      </div>\\n\\n      \', escape=False)\nif right_sidebar_enabled:\n    response.write(\'\\n        <div class="col-md-3">\\n            \', escape=False)\n    response.write(\'\\n            <h3>Right Sidebar</h3>\\n            <p></p>\\n            \', escape=False)\n    response.write(\'\\n        </div>\\n      \', escape=False)\n    pass\nresponse.write(\'\\n\\n    </div>\\n\\n    \', escape=False)\nresponse.write(\' <!-- this is default footer -->      \\n    <footer class="footer">\\n      <div class="container-fluid">\\n        <div class="copyright pull-left">\', escape=False)\nresponse.write(T(\'Copyright\'))\nresponse.write(\' &#169; \', escape=False)\nresponse.write(request.now.year)\nresponse.write(\'</div>\\n          <div id="poweredBy" class="pull-right">\\n            \', escape=False)\nresponse.write(T(\'Powered by\'))\nresponse.write(\'\\n            <a href="http://www.web2py.com/">web2py</a>\\n          </div>\\n      </div>\\n    </footer>\\n    \', escape=False)\nresponse.write(\'\\n    <!-- The javascript =============================== -->\\n    <script src="\', escape=False)\nresponse.write(URL(\'static\',\'js/bootstrap.min.js\'))\nresponse.write(\'"></script>\\n    <script src="\', escape=False)\nresponse.write(URL(\'static\',\'js/web2py-bootstrap3.js\'))\nresponse.write(\'"></script>\\n    \', escape=False)\nresponse.write(\'\\n    \', escape=False)\nif response.google_analytics_id:\n    response.write(\'\\n    <!-- Analytics ==================================== -->\\n    <script src="\', escape=False)\n    response.write(URL(\'static\',\'js/analytics.min.js\'))\n    response.write(\'"></script>\\n    <script type="text/javascript">\\n      analytics.initialize({\\n      \\\'Google Analytics\\\':{trackingId:\\\'\', escape=False)\n    response.write(response.google_analytics_id)\n    response.write("\'}\\n      });\\n    </script>\\n    ", escape=False)\n    pass\nresponse.write(\'\\n    <!-- Share ============================y============ -->\\n    <script src="\', escape=False)\nresponse.write(URL(\'static\',\'js/share.js\',vars=dict(static=URL(\'static\',\'images\'))))\nresponse.write(\'"></script>\\n    <script type="text/javascript" src="\', escape=False)\nresponse.write(URL(\'static\',\'js/scripts.js\'))\nresponse.write(\'"></script>\\n\\n    <script type="text/javascript" src="\', escape=False)\nresponse.write(URL(\'static\',\'js/jquery-latest.js\'))\nresponse.write(\'"></script>\\n    <script type="text/javascript" src="\', escape=False)\nresponse.write(URL(\'static\',\'js/jquery.tablesorter.min.js\'))\nresponse.write(\'"></script>\\n\\n  </body>\\n</html>\\n\', escape=False)'
p7
sS'snapshot'
p8
(dp9
S'exception'
p10
(dp11
S'__hash__'
p12
S"<method-wrapper '__hash__' of exceptions.AttributeError object>"
p13
sS'__setattr__'
p14
S"<method-wrapper '__setattr__' of exceptions.AttributeError object>"
p15
sS'__reduce_ex__'
p16
S'<built-in method __reduce_ex__ of exceptions.AttributeError object>'
p17
sS'__getslice__'
p18
S"<method-wrapper '__getslice__' of exceptions.AttributeError object>"
p19
sS'__getitem__'
p20
S"<method-wrapper '__getitem__' of exceptions.AttributeError object>"
p21
sS'__setstate__'
p22
S'<built-in method __setstate__ of exceptions.AttributeError object>'
p23
sS'args'
p24
S'("\'Auth\' object has no attribute \'bem\'",)'
p25
sS'__reduce__'
p26
S'<built-in method __reduce__ of exceptions.AttributeError object>'
p27
sS'__str__'
p28
S"<method-wrapper '__str__' of exceptions.AttributeError object>"
p29
sS'__format__'
p30
S'<built-in method __format__ of exceptions.AttributeError object>'
p31
sS'__getattribute__'
p32
S"<method-wrapper '__getattribute__' of exceptions.AttributeError object>"
p33
sS'__class__'
p34
S"<type 'exceptions.AttributeError'>"
p35
sS'__unicode__'
p36
S'<built-in method __unicode__ of exceptions.AttributeError object>'
p37
sS'__delattr__'
p38
S"<method-wrapper '__delattr__' of exceptions.AttributeError object>"
p39
sS'__subclasshook__'
p40
S'<built-in method __subclasshook__ of type object>'
p41
sS'__repr__'
p42
S"<method-wrapper '__repr__' of exceptions.AttributeError object>"
p43
sS'__dict__'
p44
S'{}'
p45
sS'__sizeof__'
p46
S'<built-in method __sizeof__ of exceptions.AttributeError object>'
p47
sS'__doc__'
p48
S"'Attribute not found.'"
p49
sS'__init__'
p50
S"<method-wrapper '__init__' of exceptions.AttributeError object>"
p51
sS'__new__'
p52
S'<built-in method __new__ of type object>'
p53
ssS'evalue'
p54
S"'Auth' object has no attribute 'bem'"
p55
sS'request'
p56
cgluon.html
XML_unpickle
p57
(S's\xf6[\x00\x00<div><table><tr><td style="font-weight:bold;vertical-align:top;">ajax</td><td style="vertical-align:top;">:</td><td><div>False</div></td></tr><tr><td style="font-weight:bold;vertical-align:top;">application</td><td style="vertical-align:top;">:</td><td><div>plano_de_acao</div></td></tr><tr><td style="font-weight:bold;vertical-align:top;">args</td><td style="vertical-align:top;">:</td><td><div><table></table></div></td></tr><tr><td style="font-weight:bold;vertical-align:top;">cid</td><td style="vertical-align:top;">:</td><td><div>None</div></td></tr><tr><td style="font-weight:bold;vertical-align:top;">client</td><td style="vertical-align:top;">:</td><td><div>127.0.0.1</div></td></tr><tr><td style="font-weight:bold;vertical-align:top;">controller</td><td style="vertical-align:top;">:</td><td><div>default</div></td></tr><tr><td style="font-weight:bold;vertical-align:top;">cookies</td><td style="vertical-align:top;">:</td><td><div><table><tr><td style="font-weight:bold;vertical-align:top;">session_id_admin</td><td style="vertical-align:top;">:</td><td><div>127.0.0.1-5e8f322c-3975-4044-87b7-ffbb2882817c<table><tr><td style="font-weight:bold;vertical-align:top;">comment</td><td style="vertical-align:top;">:</td><td><div></div></td></tr><tr><td style="font-weight:bold;vertical-align:top;">domain</td><td style="vertical-align:top;">:</td><td><div></div></td></tr><tr><td style="font-weight:bold;vertical-align:top;">expires</td><td style="vertical-align:top;">:</td><td><div></div></td></tr><tr><td style="font-weight:bold;vertical-align:top;">httponly</td><td style="vertical-align:top;">:</td><td><div></div></td></tr><tr><td style="font-weight:bold;vertical-align:top;">max-age</td><td style="vertical-align:top;">:</td><td><div></div></td></tr><tr><td style="font-weight:bold;vertical-align:top;">path</td><td style="vertical-align:top;">:</td><td><div></div></td></tr><tr><td style="font-weight:bold;vertical-align:top;">secure</td><td style="vertical-align:top;">:</td><td><div></div></td></tr><tr><td style="font-weight:bold;vertical-align:top;">version</td><td style="vertical-align:top;">:</td><td><div></div></td></tr></table></div></td></tr><tr><td style="font-weight:bold;vertical-align:top;">session_id_plano_de_acao</td><td style="vertical-align:top;">:</td><td><div>127.0.0.1-52c9733a-987b-4ed4-99da-faa8330e636c<table><tr><td style="font-weight:bold;vertical-align:top;">comment</td><td style="vertical-align:top;">:</td><td><div></div></td></tr><tr><td style="font-weight:bold;vertical-align:top;">domain</td><td style="vertical-align:top;">:</td><td><div></div></td></tr><tr><td style="font-weight:bold;vertical-align:top;">expires</td><td style="vertical-align:top;">:</td><td><div></div></td></tr><tr><td style="font-weight:bold;vertical-align:top;">httponly</td><td style="vertical-align:top;">:</td><td><div></div></td></tr><tr><td style="font-weight:bold;vertical-align:top;">max-age</td><td style="vertical-align:top;">:</td><td><div></div></td></tr><tr><td style="font-weight:bold;vertical-align:top;">path</td><td style="vertical-align:top;">:</td><td><div></div></td></tr><tr><td style="font-weight:bold;vertical-align:top;">secure</td><td style="vertical-align:top;">:</td><td><div></div></td></tr><tr><td style="font-weight:bold;vertical-align:top;">version</td><td style="vertical-align:top;">:</td><td><div></div></td></tr></table></div></td></tr><tr><td style="font-weight:bold;vertical-align:top;">session_id_showroom</td><td style="vertical-align:top;">:</td><td><div>127.0.0.1-6cf6e133-511c-4ecd-b66a-cae5ce28273e<table><tr><td style="font-weight:bold;vertical-align:top;">comment</td><td style="vertical-align:top;">:</td><td><div></div></td></tr><tr><td style="font-weight:bold;vertical-align:top;">domain</td><td style="vertical-align:top;">:</td><td><div></div></td></tr><tr><td style="font-weight:bold;vertical-align:top;">expires</td><td style="vertical-align:top;">:</td><td><div></div></td></tr><tr><td style="font-weight:bold;vertical-align:top;">httponly</td><td style="vertical-align:top;">:</td><td><div></div></td></tr><tr><td style="font-weight:bold;vertical-align:top;">max-age</td><td style="vertical-align:top;">:</td><td><div></div></td></tr><tr><td style="font-weight:bold;vertical-align:top;">path</td><td style="vertical-align:top;">:</td><td><div></div></td></tr><tr><td style="font-weight:bold;vertical-align:top;">secure</td><td style="vertical-align:top;">:</td><td><div></div></td></tr><tr><td style="font-weight:bold;vertical-align:top;">version</td><td style="vertical-align:top;">:</td><td><div></div></td></tr></table></div></td></tr></table></div></td></tr><tr><td style="font-weight:bold;vertical-align:top;">env</td><td style="vertical-align:top;">:</td><td><div><table><tr><td style="font-weight:bold;vertical-align:top;">HTTP_ACCEPT</td><td style="vertical-align:top;">:</td><td><div>text/html,application/xhtml+xml,application/xml;q=0.9,image/webp,*/*;q=0.8</div></td></tr><tr><td style="font-weight:bold;vertical-align:top;">HTTP_ACCEPT_ENCODING</td><td style="vertical-align:top;">:</td><td><div>gzip, deflate, sdch, br</div></td></tr><tr><td style="font-weight:bold;vertical-align:top;">HTTP_ACCEPT_LANGUAGE</td><td style="vertical-align:top;">:</td><td><div>pt-BR,pt;q=0.8,en-US;q=0.6,en;q=0.4</div></td></tr><tr><td style="font-weight:bold;vertical-align:top;">HTTP_CACHE_CONTROL</td><td style="vertical-align:top;">:</td><td><div>max-age=0</div></td></tr><tr><td style="font-weight:bold;vertical-align:top;">HTTP_CONNECTION</td><td style="vertical-align:top;">:</td><td><div>keep-alive</div></td></tr><tr><td style="font-weight:bold;vertical-align:top;">HTTP_COOKIE</td><td style="vertical-align:top;">:</td><td><div>session_id_admin=127.0.0.1-5e8f322c-3975-4044-87b7-ffbb2882817c; session_id_showroom=127.0.0.1-6cf6e133-511c-4ecd-b66a-cae5ce28273e; session_id_plano_de_acao=127.0.0.1-52c9733a-987b-4ed4-99da-faa8330e636c</div></td></tr><tr><td style="font-weight:bold;vertical-align:top;">HTTP_HOST</td><td style="vertical-align:top;">:</td><td><div>localhost:8000</div></td></tr><tr><td style="font-weight:bold;vertical-align:top;">HTTP_REFERER</td><td style="vertical-align:top;">:</td><td><div>http://localhost:8000/</div></td></tr><tr><td style="font-weight:bold;vertical-align:top;">HTTP_UPGRADE_INSECURE_REQUESTS</td><td style="vertical-align:top;">:</td><td><div>1</div></td></tr><tr><td style="font-weight:bold;vertical-align:top;">HTTP_USER_AGENT</td><td style="vertical-align:top;">:</td><td><div>Mozilla/5.0 (X11; Linux x86_64) AppleWebKit/537.36 (KHTML, like Gecko) Chrome/56.0.2924.87 Safari/537.36</div></td></tr><tr><td style="font-weight:bold;vertical-align:top;">PATH_INFO</td><td style="vertical-align:top;">:</td><td><div>/planos_de_acao</div></td></tr><tr><td style="font-weight:bold;vertical-align:top;">QUERY_STRING</td><td style="vertical-align:top;">:</td><td><div></div></td></tr><tr><td style="font-weight:bold;vertical-align:top;">REMOTE_ADDR</td><td style="vertical-align:top;">:</td><td><div>127.0.0.1</div></td></tr><tr><td style="font-weight:bold;vertical-align:top;">REMOTE_PORT</td><td style="vertical-align:top;">:</td><td><div>38306</div></td></tr><tr><td style="font-weight:bold;vertical-align:top;">REQUEST_METHOD</td><td style="vertical-align:top;">:</td><td><div>GET</div></td></tr><tr><td style="font-weight:bold;vertical-align:top;">SCRIPT_NAME</td><td style="vertical-align:top;">:</td><td><div></div></td></tr><tr><td style="font-weight:bold;vertical-align:top;">SERVER_NAME</td><td style="vertical-align:top;">:</td><td><div>amauri-note</div></td></tr><tr><td style="font-weight:bold;vertical-align:top;">SERVER_PORT</td><td style="vertical-align:top;">:</td><td><div>8000</div></td></tr><tr><td style="font-weight:bold;vertical-align:top;">SERVER_PROTOCOL</td><td style="vertical-align:top;">:</td><td><div>HTTP/1.1</div></td></tr><tr><td style="font-weight:bold;vertical-align:top;">SERVER_SOFTWARE</td><td style="vertical-align:top;">:</td><td><div>Rocket 1.2.6</div></td></tr><tr><td style="font-weight:bold;vertical-align:top;">app_folders</td><td style="vertical-align:top;">:</td><td><div>set([&#x27;/home/amauri/web2py/applications/showRoom/&#x27;, &#x27;/home/amauri/web2py/applications/plano_de_acao/&#x27;, &#x27;/home/amauri/web2py/applications/admin/&#x27;])</div></td></tr><tr><td style="font-weight:bold;vertical-align:top;">applications_parent</td><td style="vertical-align:top;">:</td><td><div>/home/amauri/web2py</div></td></tr><tr><td style="font-weight:bold;vertical-align:top;">cmd_args</td><td style="vertical-align:top;">:</td><td><div><table></table></div></td></tr><tr><td style="font-weight:bold;vertical-align:top;">cmd_options</td><td style="vertical-align:top;">:</td><td><div>&lt;Values at 0x7f9e46a2cf38: {&#x27;verbose&#x27;: False, &#x27;ip&#x27;: &#x27;127.0.0.1&#x27;, &#x27;debuglevel&#x27;: 30, &#x27;with_scheduler&#x27;: False, &#x27;shutdown_timeout&#x27;: 5, &#x27;taskbar&#x27;: False, &#x27;with_coverage&#x27;: False, &#x27;pid_filename&#x27;: &#x27;httpserver.pid&#x27;, &#x27;maxthreads&#x27;: None, &#x27;softcron&#x27;: False, &#x27;server_name&#x27;: &#x27;amauri-note&#x27;, &#x27;bpython&#x27;: False, &#x27;nogui&#x27;: False, &#x27;port&#x27;: 8000, &#x27;print_errors&#x27;: False, &#x27;extcron&#x27;: False, &#x27;runcron&#x27;: False, &#x27;run_system_tests&#x27;: False, &#x27;test&#x27;: None, &#x27;folder&#x27;: &#x27;/home/amauri/web2py&#x27;, &#x27;config&#x27;: &#x27;&#x27;, &#x27;minthreads&#x27;: None, &#x27;shell&#x27;: None, &#x27;run&#x27;: &#x27;&#x27;, &#x27;log_filename&#x27;: &#x27;httpserver.log&#x27;, &#x27;profiler_dir&#x27;: None, &#x27;args&#x27;: [&#x27;&#x27;], &#x27;socket_timeout&#x27;: 5, &#x27;ssl_ca_certificate&#x27;: None, &#x27;scheduler&#x27;: None, &#x27;interfaces&#x27;: None, &#x27;ssl_private_key&#x27;: &#x27;&#x27;, &#x27;gae&#x27;: None, &#x27;password&#x27;: &#x27;******&#x27;, &#x27;request_queue_size&#x27;: 5, &#x27;ssl_certificate&#x27;: &#x27;&#x27;, &#x27;cronjob&#x27;: False, &#x27;numthreads&#x27;: None, &#x27;quiet&#x27;: False, &#x27;import_models&#x27;: False, &#x27;timeout&#x27;: 10, &#x27;plain&#x27;: False, &#x27;nobanner&#x27;: False}&gt;</div></td></tr><tr><td style="font-weight:bold;vertical-align:top;">db_sessions</td><td style="vertical-align:top;">:</td><td><div>set([])</div></td></tr><tr><td style="font-weight:bold;vertical-align:top;">debugging</td><td style="vertical-align:top;">:</td><td><div>False</div></td></tr><tr><td style="font-weight:bold;vertical-align:top;">gluon_parent</td><td style="vertical-align:top;">:</td><td><div>/home/amauri/web2py</div></td></tr><tr><td style="font-weight:bold;vertical-align:top;">http_accept</td><td style="vertical-align:top;">:</td><td><div>text/html,application/xhtml+xml,application/xml;q=0.9,image/webp,*/*;q=0.8</div></td></tr><tr><td style="font-weight:bold;vertical-align:top;">http_accept_encoding</td><td style="vertical-align:top;">:</td><td><div>gzip, deflate, sdch, br</div></td></tr><tr><td style="font-weight:bold;vertical-align:top;">http_accept_language</td><td style="vertical-align:top;">:</td><td><div>pt-BR,pt;q=0.8,en-US;q=0.6,en;q=0.4</div></td></tr><tr><td style="font-weight:bold;vertical-align:top;">http_cache_control</td><td style="vertical-align:top;">:</td><td><div>max-age=0</div></td></tr><tr><td style="font-weight:bold;vertical-align:top;">http_connection</td><td style="vertical-align:top;">:</td><td><div>keep-alive</div></td></tr><tr><td style="font-weight:bold;vertical-align:top;">http_cookie</td><td style="vertical-align:top;">:</td><td><div>session_id_admin=127.0.0.1-5e8f322c-3975-4044-87b7-ffbb2882817c; session_id_showroom=127.0.0.1-6cf6e133-511c-4ecd-b66a-cae5ce28273e; session_id_plano_de_acao=127.0.0.1-52c9733a-987b-4ed4-99da-faa8330e636c</div></td></tr><tr><td style="font-weight:bold;vertical-align:top;">http_host</td><td style="vertical-align:top;">:</td><td><div>localhost:8000</div></td></tr><tr><td style="font-weight:bold;vertical-align:top;">http_referer</td><td style="vertical-align:top;">:</td><td><div>http://localhost:8000/</div></td></tr><tr><td style="font-weight:bold;vertical-align:top;">http_upgrade_insecure_requests</td><td style="vertical-align:top;">:</td><td><div>1</div></td></tr><tr><td style="font-weight:bold;vertical-align:top;">http_user_agent</td><td style="vertical-align:top;">:</td><td><div>Mozilla/5.0 (X11; Linux x86_64) AppleWebKit/537.36 (KHTML, like Gecko) Chrome/56.0.2924.87 Safari/537.36</div></td></tr><tr><td style="font-weight:bold;vertical-align:top;">is_jython</td><td style="vertical-align:top;">:</td><td><div>False</div></td></tr><tr><td style="font-weight:bold;vertical-align:top;">is_pypy</td><td style="vertical-align:top;">:</td><td><div>False</div></td></tr><tr><td style="font-weight:bold;vertical-align:top;">is_source</td><td style="vertical-align:top;">:</td><td><div>True</div></td></tr><tr><td style="font-weight:bold;vertical-align:top;">local_hosts</td><td style="vertical-align:top;">:</td><td><div><table><tr><td><div>127.0.1.1</div></td></tr><tr><td><div>::1</div></td></tr><tr><td><div>amauri-note</div></td></tr><tr><td><div>::ffff:127.0.0.1</div></td></tr><tr><td><div>127.0.0.1</div></td></tr></table></div></td></tr><tr><td style="font-weight:bold;vertical-align:top;">path_info</td><td style="vertical-align:top;">:</td><td><div>/planos_de_acao</div></td></tr><tr><td style="font-weight:bold;vertical-align:top;">query_string</td><td style="vertical-align:top;">:</td><td><div></div></td></tr><tr><td style="font-weight:bold;vertical-align:top;">remote_addr</td><td style="vertical-align:top;">:</td><td><div>127.0.0.1</div></td></tr><tr><td style="font-weight:bold;vertical-align:top;">remote_port</td><td style="vertical-align:top;">:</td><td><div>38306</div></td></tr><tr><td style="font-weight:bold;vertical-align:top;">request_method</td><td style="vertical-align:top;">:</td><td><div>GET</div></td></tr><tr><td style="font-weight:bold;vertical-align:top;">request_uri</td><td style="vertical-align:top;">:</td><td><div>/plano_de_acao/default/planos_de_acao</div></td></tr><tr><td style="font-weight:bold;vertical-align:top;">script_name</td><td style="vertical-align:top;">:</td><td><div></div></td></tr><tr><td style="font-weight:bold;vertical-align:top;">server_name</td><td style="vertical-align:top;">:</td><td><div>amauri-note</div></td></tr><tr><td style="font-weight:bold;vertical-align:top;">server_port</td><td style="vertical-align:top;">:</td><td><div>8000</div></td></tr><tr><td style="font-weight:bold;vertical-align:top;">server_protocol</td><td style="vertical-align:top;">:</td><td><div>HTTP/1.1</div></td></tr><tr><td style="font-weight:bold;vertical-align:top;">server_software</td><td style="vertical-align:top;">:</td><td><div>Rocket 1.2.6</div></td></tr><tr><td style="font-weight:bold;vertical-align:top;">web2py_original_uri</td><td style="vertical-align:top;">:</td><td><div>/planos_de_acao</div></td></tr><tr><td style="font-weight:bold;vertical-align:top;">web2py_path</td><td style="vertical-align:top;">:</td><td><div>/home/amauri/web2py</div></td></tr><tr><td style="font-weight:bold;vertical-align:top;">web2py_version</td><td style="vertical-align:top;">:</td><td><div>2.14.6-stable+timestamp.2016.05.10.00.21.47</div></td></tr><tr><td style="font-weight:bold;vertical-align:top;">wsgi.errors</td><td style="vertical-align:top;">:</td><td><div>&lt;open file &#x27;&lt;stderr&gt;&#x27;, mode &#x27;w&#x27; at 0x7f9e51cf01e0&gt;</div></td></tr><tr><td style="font-weight:bold;vertical-align:top;">wsgi.file_wrapper</td><td style="vertical-align:top;">:</td><td><div>&lt;class wsgiref.util.FileWrapper at 0x7f9e46a50120&gt;</div></td></tr><tr><td style="font-weight:bold;vertical-align:top;">wsgi.input</td><td style="vertical-align:top;">:</td><td><div>&lt;socket._fileobject object at 0x7f9e12160650&gt;</div></td></tr><tr><td style="font-weight:bold;vertical-align:top;">wsgi.multiprocess</td><td style="vertical-align:top;">:</td><td><div>False</div></td></tr><tr><td style="font-weight:bold;vertical-align:top;">wsgi.multithread</td><td style="vertical-align:top;">:</td><td><div>True</div></td></tr><tr><td style="font-weight:bold;vertical-align:top;">wsgi.run_once</td><td style="vertical-align:top;">:</td><td><div>False</div></td></tr><tr><td style="font-weight:bold;vertical-align:top;">wsgi.url_scheme</td><td style="vertical-align:top;">:</td><td><div>http</div></td></tr><tr><td style="font-weight:bold;vertical-align:top;">wsgi.version</td><td style="vertical-align:top;">:</td><td><div><table><tr><td><div>1</div></td></tr><tr><td><div>0</div></td></tr></table></div></td></tr><tr><td style="font-weight:bold;vertical-align:top;">wsgi_errors</td><td style="vertical-align:top;">:</td><td><div>&lt;open file &#x27;&lt;stderr&gt;&#x27;, mode &#x27;w&#x27; at 0x7f9e51cf01e0&gt;</div></td></tr><tr><td style="font-weight:bold;vertical-align:top;">wsgi_file_wrapper</td><td style="vertical-align:top;">:</td><td><div>&lt;class wsgiref.util.FileWrapper at 0x7f9e46a50120&gt;</div></td></tr><tr><td style="font-weight:bold;vertical-align:top;">wsgi_input</td><td style="vertical-align:top;">:</td><td><div>&lt;socket._fileobject object at 0x7f9e12160650&gt;</div></td></tr><tr><td style="font-weight:bold;vertical-align:top;">wsgi_multiprocess</td><td style="vertical-align:top;">:</td><td><div>False</div></td></tr><tr><td style="font-weight:bold;vertical-align:top;">wsgi_multithread</td><td style="vertical-align:top;">:</td><td><div>True</div></td></tr><tr><td style="font-weight:bold;vertical-align:top;">wsgi_run_once</td><td style="vertical-align:top;">:</td><td><div>False</div></td></tr><tr><td style="font-weight:bold;vertical-align:top;">wsgi_url_scheme</td><td style="vertical-align:top;">:</td><td><div>http</div></td></tr><tr><td style="font-weight:bold;vertical-align:top;">wsgi_version</td><td style="vertical-align:top;">:</td><td><div><table><tr><td><div>1</div></td></tr><tr><td><div>0</div></td></tr></table></div></td></tr></table></div></td></tr><tr><td style="font-weight:bold;vertical-align:top;">extension</td><td style="vertical-align:top;">:</td><td><div>html</div></td></tr><tr><td style="font-weight:bold;vertical-align:top;">folder</td><td style="vertical-align:top;">:</td><td><div>/home/amauri/web2py/applications/plano_de_acao/</div></td></tr><tr><td style="font-weight:bold;vertical-align:top;">function</td><td style="vertical-align:top;">:</td><td><div>planos_de_acao</div></td></tr><tr><td style="font-weight:bold;vertical-align:top;">global_settings</td><td style="vertical-align:top;">:</td><td><div><table><tr><td style="font-weight:bold;vertical-align:top;">app_folders</td><td style="vertical-align:top;">:</td><td><div>set([&#x27;/home/amauri/web2py/applications/showRoom/&#x27;, &#x27;/home/amauri/web2py/applications/plano_de_acao/&#x27;, &#x27;/home/amauri/web2py/applications/admin/&#x27;])</div></td></tr><tr><td style="font-weight:bold;vertical-align:top;">applications_parent</td><td style="vertical-align:top;">:</td><td><div>/home/amauri/web2py</div></td></tr><tr><td style="font-weight:bold;vertical-align:top;">cmd_args</td><td style="vertical-align:top;">:</td><td><div><table></table></div></td></tr><tr><td style="font-weight:bold;vertical-align:top;">cmd_options</td><td style="vertical-align:top;">:</td><td><div>&lt;Values at 0x7f9e46a2cf38: {&#x27;verbose&#x27;: False, &#x27;ip&#x27;: &#x27;127.0.0.1&#x27;, &#x27;debuglevel&#x27;: 30, &#x27;with_scheduler&#x27;: False, &#x27;shutdown_timeout&#x27;: 5, &#x27;taskbar&#x27;: False, &#x27;with_coverage&#x27;: False, &#x27;pid_filename&#x27;: &#x27;httpserver.pid&#x27;, &#x27;maxthreads&#x27;: None, &#x27;softcron&#x27;: False, &#x27;server_name&#x27;: &#x27;amauri-note&#x27;, &#x27;bpython&#x27;: False, &#x27;nogui&#x27;: False, &#x27;port&#x27;: 8000, &#x27;print_errors&#x27;: False, &#x27;extcron&#x27;: False, &#x27;runcron&#x27;: False, &#x27;run_system_tests&#x27;: False, &#x27;test&#x27;: None, &#x27;folder&#x27;: &#x27;/home/amauri/web2py&#x27;, &#x27;config&#x27;: &#x27;&#x27;, &#x27;minthreads&#x27;: None, &#x27;shell&#x27;: None, &#x27;run&#x27;: &#x27;&#x27;, &#x27;log_filename&#x27;: &#x27;httpserver.log&#x27;, &#x27;profiler_dir&#x27;: None, &#x27;args&#x27;: [&#x27;&#x27;], &#x27;socket_timeout&#x27;: 5, &#x27;ssl_ca_certificate&#x27;: None, &#x27;scheduler&#x27;: None, &#x27;interfaces&#x27;: None, &#x27;ssl_private_key&#x27;: &#x27;&#x27;, &#x27;gae&#x27;: None, &#x27;password&#x27;: &#x27;******&#x27;, &#x27;request_queue_size&#x27;: 5, &#x27;ssl_certificate&#x27;: &#x27;&#x27;, &#x27;cronjob&#x27;: False, &#x27;numthreads&#x27;: None, &#x27;quiet&#x27;: False, &#x27;import_models&#x27;: False, &#x27;timeout&#x27;: 10, &#x27;plain&#x27;: False, &#x27;nobanner&#x27;: False}&gt;</div></td></tr><tr><td style="font-weight:bold;vertical-align:top;">db_sessions</td><td style="vertical-align:top;">:</td><td><div>set([])</div></td></tr><tr><td style="font-weight:bold;vertical-align:top;">debugging</td><td style="vertical-align:top;">:</td><td><div>False</div></td></tr><tr><td style="font-weight:bold;vertical-align:top;">gluon_parent</td><td style="vertical-align:top;">:</td><td><div>/home/amauri/web2py</div></td></tr><tr><td style="font-weight:bold;vertical-align:top;">is_jython</td><td style="vertical-align:top;">:</td><td><div>False</div></td></tr><tr><td style="font-weight:bold;vertical-align:top;">is_pypy</td><td style="vertical-align:top;">:</td><td><div>False</div></td></tr><tr><td style="font-weight:bold;vertical-align:top;">is_source</td><td style="vertical-align:top;">:</td><td><div>True</div></td></tr><tr><td style="font-weight:bold;vertical-align:top;">local_hosts</td><td style="vertical-align:top;">:</td><td><div><table><tr><td><div>127.0.1.1</div></td></tr><tr><td><div>::1</div></td></tr><tr><td><div>amauri-note</div></td></tr><tr><td><div>::ffff:127.0.0.1</div></td></tr><tr><td><div>127.0.0.1</div></td></tr></table></div></td></tr><tr><td style="font-weight:bold;vertical-align:top;">web2py_version</td><td style="vertical-align:top;">:</td><td><div>2.14.6-stable+timestamp.2016.05.10.00.21.47</div></td></tr></table></div></td></tr><tr><td style="font-weight:bold;vertical-align:top;">is_https</td><td style="vertical-align:top;">:</td><td><div>False</div></td></tr><tr><td style="font-weight:bold;vertical-align:top;">is_local</td><td style="vertical-align:top;">:</td><td><div>True</div></td></tr><tr><td style="font-weight:bold;vertical-align:top;">is_restful</td><td style="vertical-align:top;">:</td><td><div>False</div></td></tr><tr><td style="font-weight:bold;vertical-align:top;">is_scheduler</td><td style="vertical-align:top;">:</td><td><div>False</div></td></tr><tr><td style="font-weight:bold;vertical-align:top;">is_shell</td><td style="vertical-align:top;">:</td><td><div>False</div></td></tr><tr><td style="font-weight:bold;vertical-align:top;">now</td><td style="vertical-align:top;">:</td><td><div>datetime.datetime(2017, 3, 10, 21, 47, 7, 536713)</div></td></tr><tr><td style="font-weight:bold;vertical-align:top;">url</td><td style="vertical-align:top;">:</td><td><div>/planos_de_acao</div></td></tr><tr><td style="font-weight:bold;vertical-align:top;">utcnow</td><td style="vertical-align:top;">:</td><td><div>datetime.datetime(2017, 3, 11, 0, 47, 7, 536743)</div></td></tr><tr><td style="font-weight:bold;vertical-align:top;">wsgi</td><td style="vertical-align:top;">:</td><td><div>&lt;gluon.main.LazyWSGI object at 0x7f9e1226b350&gt;</div></td></tr></table></div>'
tRp58
sS'frames'
p59
(lp60
(dp61
S'file'
p62
S'/home/amauri/web2py/gluon/restricted.py'
p63
sS'dump'
p64
(dp65
S'environment'
p66
S"{'A': <class 'gluon.html.A'>, 'ANY_OF': <class 'gluon.validators.ANY_OF'>, 'ASSIGNJS': <function ASSIGNJS>, 'AppConfig': <function AppConfig>, 'Auth': <class 'gluon.tools.Auth'>, 'B': <class 'gluon.html.B'>, 'BEAUTIFY': <class 'gluon.html.BEAUTIFY'>, 'BODY': <class 'gluon.html.BODY'>, 'BR': <class 'gluon.html.BR'>, 'BUTTON': <class 'gluon.html.BUTTON'>, ...}"
p67
sS'ccode'
p68
S'<code object <module> at 0x7f9e4477ecb0, file "/..._acao/views/default/planos_de_acao.html", line 1>'
p69
ssS'lnum'
p70
I227
sS'lines'
p71
(dp72
I224
S'            ccode = code'
p73
sI225
S'        else:'
p74
sI226
S'            ccode = compile2(code, layer)'
p75
sI227
S'        exec ccode in environment'
p76
sI228
S'    except HTTP:'
p77
sI229
S'        raise'
p78
sI230
S'    except RestrictedError:'
p79
sI231
S'        # do not encapsulate (obfuscate) the original RestrictedError'
p80
sI222
S'    try:'
p81
sI223
S'        if isinstance(code, types.CodeType):'
p82
ssS'call'
p83
S'(code=r"response.write(\'<!DOCTYPE html>\\n<!--[if (gt IE ...</script>\\n\\n  </body>\\n</html>\\n\', escape=False)", environment={\'A\': <class \'gluon.html.A\'>, \'ANY_OF\': <class \'gluon.validators.ANY_OF\'>, \'ASSIGNJS\': <function ASSIGNJS>, \'AppConfig\': <function AppConfig>, \'Auth\': <class \'gluon.tools.Auth\'>, \'B\': <class \'gluon.html.B\'>, \'BEAUTIFY\': <class \'gluon.html.BEAUTIFY\'>, \'BODY\': <class \'gluon.html.BODY\'>, \'BR\': <class \'gluon.html.BR\'>, \'BUTTON\': <class \'gluon.html.BUTTON\'>, ...}, layer=\'/home/amauri/web2py/applications/plano_de_acao/views/default/planos_de_acao.html\')'
p84
sS'func'
p85
S'restricted'
p86
sa(dp87
g62
S'/home/amauri/web2py/applications/plano_de_acao/views/default/planos_de_acao.html'
p88
sg64
(dp89
S'hidden'
p90
S'undefined'
p91
sS'aria'
p92
g91
sS'span'
p93
g91
sS'button'
p94
S'<gluon.html.A object>'
p95
sS'th'
p96
g91
ssg70
I63
sg71
(dp97
I64
S'response.write(\'\\n          </ul>\\n          <ul class="navbar-nav fonte">\\n            <li class="active"><span class="cor-icon-nav"><img src="\', escape=False)'
p98
sI65
S"response.write(URL('static', 'images/glyphicons-30-notes-2-azul-escuro.png'))"
p99
sI66
S'response.write(\'" alt=""></span><a href="\', escape=False)'
p100
sI67
S"response.write(URL('planos_de_acao'))"
p101
sI68
S'response.write(\'"> Planos de A\\xc3\\xa7\\xc3\\xa3o</a></li>\\n            <li><span class="cor-icon-nav"><img src="\', escape=False)'
p102
sI69
S"response.write(URL('static', 'images/glyphicons-78-headset-azul-escuro.png'))"
p103
sI70
S'response.write(\'" alt=""></span><a href="#"> Atendimentos</a></li>\\n            <li><span class="cor-icon-nav"><img src="\', escape=False)'
p104
sI71
S"response.write(URL('static', 'images/glyphicons-45-keys-azul-escuro.png'))"
p105
sI72
S'response.write(\'" alt=""></span><a href="#"> Licen\\xc3\\xa7as</a></li>\\n            <!-- <li><a href="#">Em Breve</a></li> -->\\n          </ul>\\n        </div>\\n      </div>\\n    </nav>\\n    <!-- Masthead ===================================== -->    \\n    \', escape=False)'
p106
sI73
S"response.write('\\n    ', escape=False)"
p107
sI54
S"left_sidebar_enabled = globals().get('left_sidebar_enabled', False)"
p108
sI55
S"right_sidebar_enabled = globals().get('right_sidebar_enabled', False)"
p109
sI56
S'middle_column = {0: mc0, 1: mc1, 2: mc2}['
p110
sI57
S'(left_sidebar_enabled and 1 or 0)+(right_sidebar_enabled and 1 or 0)]'
p111
sI58
S'response.write(\'\\n\\n  </head>\\n  <body>\\n    <!--[if lt IE 8]><p class="browserupgrade">You are using an <strong>outdated</strong> browser. Please <a href="http://browsehappy.com/">upgrade your browser</a> to improve your experience.</p><![endif]-->\\n    <div class="w2p_flash alert alert-dismissable">\', escape=False)'
p112
sI59
S"response.write(response.flash or '')"
p113
sI60
S'response.write(\'</div>\\n    <!-- Navbar ======================================= -->\\n    <nav class="navbar cor navbar-fixed-top" role="navigation">\\n      <div class="container-fluid">\\n        <div class="navbar-header">\\n          <button type="button" class="navbar-toggle" data-toggle="collapse" data-target=".navbar-collapse">\\n            <span class="sr-only">Toggle navigation</span>\\n            <span class="icon-bar"></span>\\n            <span class="icon-bar"></span>\\n            <span class="icon-bar"></span>\\n          </button>\\n          <div id="logoBest">\\n          \', escape=False)'
p114
sI61
S"response.write(response.logo or '')"
p115
sI62
S'response.write(\'\\n          </div>\\n        </div>\\n        <div class="collapse navbar-collapse navbar-ex1-collapse">\\n          <ul class="nav navbar-nav navbar-right bem-vindo">\\n            \', escape=False)'
p116
sI63
S"response.write('auth' in globals() and auth.bem-vindo('Welcome',mode='dropdown') or '')"
p117
ssg83
S'()'
p118
sg85
S'<module>'
p119
sasS'pyver'
p120
S'Python 2.7.12: /usr/bin/python (prefix: /usr)'
p121
sS'session'
p122
g57
(S's\xb7\r\x00\x00<div><table><tr><td style="font-weight:bold;vertical-align:top;">auth</td><td style="vertical-align:top;">:</td><td><div><table><tr><td style="font-weight:bold;vertical-align:top;">expiration</td><td style="vertical-align:top;">:</td><td><div>3600</div></td></tr><tr><td style="font-weight:bold;vertical-align:top;">hmac_key</td><td style="vertical-align:top;">:</td><td><div>6611f699-db52-4f1c-beba-38c3804b860c</div></td></tr><tr><td style="font-weight:bold;vertical-align:top;">last_visit</td><td style="vertical-align:top;">:</td><td><div>datetime.datetime(2017, 3, 10, 21, 42, 55, 533835)</div></td></tr><tr><td style="font-weight:bold;vertical-align:top;">remember_me</td><td style="vertical-align:top;">:</td><td><div>False</div></td></tr><tr><td style="font-weight:bold;vertical-align:top;">user</td><td style="vertical-align:top;">:</td><td><div><table><tr><td style="font-weight:bold;vertical-align:top;">created_by</td><td style="vertical-align:top;">:</td><td><div>None</div></td></tr><tr><td style="font-weight:bold;vertical-align:top;">created_on</td><td style="vertical-align:top;">:</td><td><div>datetime.datetime(2017, 3, 4, 2, 11, 13)</div></td></tr><tr><td style="font-weight:bold;vertical-align:top;">email</td><td style="vertical-align:top;">:</td><td><div>amaurirg@terra.com.br</div></td></tr><tr><td style="font-weight:bold;vertical-align:top;">first_name</td><td style="vertical-align:top;">:</td><td><div>Amauri</div></td></tr><tr><td style="font-weight:bold;vertical-align:top;">id</td><td style="vertical-align:top;">:</td><td><div>1L</div></td></tr><tr><td style="font-weight:bold;vertical-align:top;">is_active</td><td style="vertical-align:top;">:</td><td><div>True</div></td></tr><tr><td style="font-weight:bold;vertical-align:top;">last_name</td><td style="vertical-align:top;">:</td><td><div>Rossetti Giovani</div></td></tr><tr><td style="font-weight:bold;vertical-align:top;">modified_by</td><td style="vertical-align:top;">:</td><td><div>None</div></td></tr><tr><td style="font-weight:bold;vertical-align:top;">modified_on</td><td style="vertical-align:top;">:</td><td><div>datetime.datetime(2017, 3, 5, 20, 43, 39)</div></td></tr><tr><td style="font-weight:bold;vertical-align:top;">registration_id</td><td style="vertical-align:top;">:</td><td><div></div></td></tr><tr><td style="font-weight:bold;vertical-align:top;">registration_key</td><td style="vertical-align:top;">:</td><td><div></div></td></tr><tr><td style="font-weight:bold;vertical-align:top;">reset_password_key</td><td style="vertical-align:top;">:</td><td><div>1488757419-6cc4e0be-f822-4bd5-8148-83986680f914</div></td></tr><tr><td style="font-weight:bold;vertical-align:top;">username</td><td style="vertical-align:top;">:</td><td><div>amauri</div></td></tr></table></div></td></tr><tr><td style="font-weight:bold;vertical-align:top;">user_groups</td><td style="vertical-align:top;">:</td><td><div><table><tr><td style="font-weight:bold;vertical-align:top;">1</td><td style="vertical-align:top;">:</td><td><div>user_1</div></td></tr></table></div></td></tr></table></div></td></tr><tr><td style="font-weight:bold;vertical-align:top;">flash</td><td style="vertical-align:top;">:</td><td><div>None</div></td></tr><tr><td style="font-weight:bold;vertical-align:top;">last_orderby</td><td style="vertical-align:top;">:</td><td><div>None</div></td></tr><tr><td style="font-weight:bold;vertical-align:top;">last_query</td><td style="vertical-align:top;">:</td><td><div>db.plano.id&gt;0</div></td></tr></table></div>'
tRp123
sS'etype'
p124
S"<type 'exceptions.AttributeError'>"
p125
sS'date'
p126
S'Fri Mar 10 21:47:07 2017'
p127
sS'response'
p128
g57
(S's\x96@\x00\x00<div><table><tr><td style="font-weight:bold;vertical-align:top;">body</td><td style="vertical-align:top;">:</td><td><div>&lt;cStringIO.StringO object at 0x7f9e12199458&gt;</div></td></tr><tr><td style="font-weight:bold;vertical-align:top;">cookies</td><td style="vertical-align:top;">:</td><td><div><table><tr><td style="font-weight:bold;vertical-align:top;">session_id_plano_de_acao</td><td style="vertical-align:top;">:</td><td><div>127.0.0.1-52c9733a-987b-4ed4-99da-faa8330e636c<table><tr><td style="font-weight:bold;vertical-align:top;">comment</td><td style="vertical-align:top;">:</td><td><div></div></td></tr><tr><td style="font-weight:bold;vertical-align:top;">domain</td><td style="vertical-align:top;">:</td><td><div></div></td></tr><tr><td style="font-weight:bold;vertical-align:top;">expires</td><td style="vertical-align:top;">:</td><td><div></div></td></tr><tr><td style="font-weight:bold;vertical-align:top;">httponly</td><td style="vertical-align:top;">:</td><td><div></div></td></tr><tr><td style="font-weight:bold;vertical-align:top;">max-age</td><td style="vertical-align:top;">:</td><td><div></div></td></tr><tr><td style="font-weight:bold;vertical-align:top;">path</td><td style="vertical-align:top;">:</td><td><div>/</div></td></tr><tr><td style="font-weight:bold;vertical-align:top;">secure</td><td style="vertical-align:top;">:</td><td><div></div></td></tr><tr><td style="font-weight:bold;vertical-align:top;">version</td><td style="vertical-align:top;">:</td><td><div></div></td></tr></table></div></td></tr></table></div></td></tr><tr><td style="font-weight:bold;vertical-align:top;">delimiters</td><td style="vertical-align:top;">:</td><td><div><table><tr><td><div>{{</div></td></tr><tr><td><div>}}</div></td></tr></table></div></td></tr><tr><td style="font-weight:bold;vertical-align:top;">files</td><td style="vertical-align:top;">:</td><td><div><table><tr><td><div>/plano_de_acao/static/js/jquery.js</div></td></tr><tr><td><div>/plano_de_acao/static/css/calendar.css</div></td></tr><tr><td><div>/plano_de_acao/static/js/calendar.js</div></td></tr><tr><td><div>/plano_de_acao/static/js/web2py.js</div></td></tr></table></div></td></tr><tr><td style="font-weight:bold;vertical-align:top;">flash</td><td style="vertical-align:top;">:</td><td><div></div></td></tr><tr><td style="font-weight:bold;vertical-align:top;">form_label_separator</td><td style="vertical-align:top;">:</td><td><div></div></td></tr><tr><td style="font-weight:bold;vertical-align:top;">formstyle</td><td style="vertical-align:top;">:</td><td><div>bootstrap3_inline</div></td></tr><tr><td style="font-weight:bold;vertical-align:top;">generic_patterns</td><td style="vertical-align:top;">:</td><td><div><table><tr><td><div>*</div></td></tr></table></div></td></tr><tr><td style="font-weight:bold;vertical-align:top;">google_analytics_id</td><td style="vertical-align:top;">:</td><td><div>None</div></td></tr><tr><td style="font-weight:bold;vertical-align:top;">headers</td><td style="vertical-align:top;">:</td><td><div><table><tr><td style="font-weight:bold;vertical-align:top;">X-Powered-By</td><td style="vertical-align:top;">:</td><td><div>web2py</div></td></tr></table></div></td></tr><tr><td style="font-weight:bold;vertical-align:top;">logo</td><td style="vertical-align:top;">:</td><td><div><a><img href="/" src="/plano_de_acao/static/images/logoSiteBest.png" /></a></div></td></tr><tr><td style="font-weight:bold;vertical-align:top;">menu</td><td style="vertical-align:top;">:</td><td><div><table><tr><td><div><table><tr><td><div>Principal</div></td></tr><tr><td><div>False</div></td></tr><tr><td><div>/</div></td></tr><tr><td><div><table></table></div></td></tr></table></div></td></tr><tr><td><div><table><tr><td><div>Meus sites</div></td></tr><tr><td><div>False</div></td></tr><tr><td><div>/admin/site</div></td></tr></table></div></td></tr><tr><td><div><table><tr><td><div>Esta aplica\xc3\xa7\xc3\xa3o</div></td></tr><tr><td><div>False</div></td></tr><tr><td><div>#</div></td></tr><tr><td><div><table><tr><td><div><table><tr><td><div>Design</div></td></tr><tr><td><div>False</div></td></tr><tr><td><div>/admin/design/plano_de_acao</div></td></tr></table></div></td></tr><tr><td><div><li class="divider"></li></div></td></tr><tr><td><div><table><tr><td><div>Controlador</div></td></tr><tr><td><div>False</div></td></tr><tr><td><div>/admin/edit/plano_de_acao/controllers/default.py</div></td></tr></table></div></td></tr><tr><td><div><table><tr><td><div>Visualiza\xc3\xa7\xc3\xa3o</div></td></tr><tr><td><div>False</div></td></tr><tr><td><div>/admin/edit/plano_de_acao/views/default/planos_de_acao.html</div></td></tr></table></div></td></tr><tr><td><div><table><tr><td><div>Modelo BD</div></td></tr><tr><td><div>False</div></td></tr><tr><td><div>/admin/edit/plano_de_acao/models/db.py</div></td></tr></table></div></td></tr><tr><td><div><table><tr><td><div>Modelo de Menu</div></td></tr><tr><td><div>False</div></td></tr><tr><td><div>/admin/edit/plano_de_acao/models/menu.py</div></td></tr></table></div></td></tr><tr><td><div><table><tr><td><div>Config.ini</div></td></tr><tr><td><div>False</div></td></tr><tr><td><div>/admin/edit/plano_de_acao/private/appconfig.ini</div></td></tr></table></div></td></tr><tr><td><div><table><tr><td><div>Layout</div></td></tr><tr><td><div>False</div></td></tr><tr><td><div>/admin/edit/plano_de_acao/views/layout.html</div></td></tr></table></div></td></tr><tr><td><div><table><tr><td><div>Folha de estilo</div></td></tr><tr><td><div>False</div></td></tr><tr><td><div>/admin/edit/plano_de_acao/static/css/web2py-bootstrap3.css</div></td></tr></table></div></td></tr><tr><td><div><table><tr><td><div>banco de dados</div></td></tr><tr><td><div>False</div></td></tr><tr><td><div>/appadmin</div></td></tr></table></div></td></tr><tr><td><div><table><tr><td><div>Erros</div></td></tr><tr><td><div>False</div></td></tr><tr><td><div>/admin/errors/plano_de_acao</div></td></tr></table></div></td></tr><tr><td><div><table><tr><td><div>Sobre</div></td></tr><tr><td><div>False</div></td></tr><tr><td><div>/admin/about/plano_de_acao</div></td></tr></table></div></td></tr></table></div></td></tr></table></div></td></tr><tr><td><div><table><tr><td><div>web2py.com</div></td></tr><tr><td><div>False</div></td></tr><tr><td><div>#</div></td></tr><tr><td><div><table><tr><td><div><table><tr><td><div>Download</div></td></tr><tr><td><div>False</div></td></tr><tr><td><div>http://www.web2py.com/examples/default/download</div></td></tr></table></div></td></tr><tr><td><div><table><tr><td><div>Suporte</div></td></tr><tr><td><div>False</div></td></tr><tr><td><div>http://www.web2py.com/examples/default/support</div></td></tr></table></div></td></tr><tr><td><div><table><tr><td><div>Demo</div></td></tr><tr><td><div>False</div></td></tr><tr><td><div>http://web2py.com/demo_admin</div></td></tr></table></div></td></tr><tr><td><div><table><tr><td><div>Exemplos r\xc3\xa1pidos</div></td></tr><tr><td><div>False</div></td></tr><tr><td><div>http://web2py.com/examples/default/examples</div></td></tr></table></div></td></tr><tr><td><div><table><tr><td><div>Perguntas frequentes</div></td></tr><tr><td><div>False</div></td></tr><tr><td><div>http://web2py.com/AlterEgo</div></td></tr></table></div></td></tr><tr><td><div><table><tr><td><div>V\xc3\xaddeos</div></td></tr><tr><td><div>False</div></td></tr><tr><td><div>http://www.web2py.com/examples/default/videos/</div></td></tr></table></div></td></tr><tr><td><div><table><tr><td><div>Aplica\xc3\xa7\xc3\xb5es gratuitas</div></td></tr><tr><td><div>False</div></td></tr><tr><td><div>http://web2py.com/appliances</div></td></tr></table></div></td></tr><tr><td><div><table><tr><td><div>Plugins</div></td></tr><tr><td><div>False</div></td></tr><tr><td><div>http://web2py.com/plugins</div></td></tr></table></div></td></tr><tr><td><div><table><tr><td><div>Receitas</div></td></tr><tr><td><div>False</div></td></tr><tr><td><div>http://web2pyslices.com/</div></td></tr></table></div></td></tr></table></div></td></tr></table></div></td></tr><tr><td><div><table><tr><td><div>Documenta\xc3\xa7\xc3\xa3o</div></td></tr><tr><td><div>False</div></td></tr><tr><td><div>#</div></td></tr><tr><td><div><table><tr><td><div><table><tr><td><div>Online book</div></td></tr><tr><td><div>False</div></td></tr><tr><td><div>http://www.web2py.com/book</div></td></tr></table></div></td></tr><tr><td><div><li class="divider"></li></div></td></tr><tr><td><div><table><tr><td><div>Pref\xc3\xa1cio</div></td></tr><tr><td><div>False</div></td></tr><tr><td><div>http://www.web2py.com/book/default/chapter/00</div></td></tr></table></div></td></tr><tr><td><div><table><tr><td><div>Introdu\xc3\xa7\xc3\xa3o</div></td></tr><tr><td><div>False</div></td></tr><tr><td><div>http://www.web2py.com/book/default/chapter/01</div></td></tr></table></div></td></tr><tr><td><div><table><tr><td><div>Python</div></td></tr><tr><td><div>False</div></td></tr><tr><td><div>http://www.web2py.com/book/default/chapter/02</div></td></tr></table></div></td></tr><tr><td><div><table><tr><td><div>Vis\xc3\xa3o Geral</div></td></tr><tr><td><div>False</div></td></tr><tr><td><div>http://www.web2py.com/book/default/chapter/03</div></td></tr></table></div></td></tr><tr><td><div><table><tr><td><div>The Core</div></td></tr><tr><td><div>False</div></td></tr><tr><td><div>http://www.web2py.com/book/default/chapter/04</div></td></tr></table></div></td></tr><tr><td><div><table><tr><td><div>As views</div></td></tr><tr><td><div>False</div></td></tr><tr><td><div>http://www.web2py.com/book/default/chapter/05</div></td></tr></table></div></td></tr><tr><td><div><table><tr><td><div>banco de dados</div></td></tr><tr><td><div>False</div></td></tr><tr><td><div>http://www.web2py.com/book/default/chapter/06</div></td></tr></table></div></td></tr><tr><td><div><table><tr><td><div>Formul\xc3\xa1rios e Validadores</div></td></tr><tr><td><div>False</div></td></tr><tr><td><div>http://www.web2py.com/book/default/chapter/07</div></td></tr></table></div></td></tr><tr><td><div><table><tr><td><div>Email e SMS</div></td></tr><tr><td><div>False</div></td></tr><tr><td><div>http://www.web2py.com/book/default/chapter/08</div></td></tr></table></div></td></tr><tr><td><div><table><tr><td><div>Controle de Acesso</div></td></tr><tr><td><div>False</div></td></tr><tr><td><div>http://www.web2py.com/book/default/chapter/09</div></td></tr></table></div></td></tr><tr><td><div><table><tr><td><div>Servi\xc3\xa7o</div></td></tr><tr><td><div>False</div></td></tr><tr><td><div>http://www.web2py.com/book/default/chapter/10</div></td></tr></table></div></td></tr><tr><td><div><table><tr><td><div>Receitas de Ajax</div></td></tr><tr><td><div>False</div></td></tr><tr><td><div>http://www.web2py.com/book/default/chapter/11</div></td></tr></table></div></td></tr><tr><td><div><table><tr><td><div>Componentes e Plugins</div></td></tr><tr><td><div>False</div></td></tr><tr><td><div>http://www.web2py.com/book/default/chapter/12</div></td></tr></table></div></td></tr><tr><td><div><table><tr><td><div>Receitas de deploy</div></td></tr><tr><td><div>False</div></td></tr><tr><td><div>http://www.web2py.com/book/default/chapter/13</div></td></tr></table></div></td></tr><tr><td><div><table><tr><td><div>Outras Receitas</div></td></tr><tr><td><div>False</div></td></tr><tr><td><div>http://www.web2py.com/book/default/chapter/14</div></td></tr></table></div></td></tr><tr><td><div><table><tr><td><div>Helping web2py</div></td></tr><tr><td><div>False</div></td></tr><tr><td><div>http://www.web2py.com/book/default/chapter/15</div></td></tr></table></div></td></tr><tr><td><div><table><tr><td><div>Buy web2py\'s book</div></td></tr><tr><td><div>False</div></td></tr><tr><td><div>http://stores.lulu.com/web2py</div></td></tr></table></div></td></tr></table></div></td></tr></table></div></td></tr><tr><td><div><table><tr><td><div>Comunidade</div></td></tr><tr><td><div>False</div></td></tr><tr><td><div>None</div></td></tr><tr><td><div><table><tr><td><div><table><tr><td><div>Grupos</div></td></tr><tr><td><div>False</div></td></tr><tr><td><div>http://www.web2py.com/examples/default/usergroups</div></td></tr></table></div></td></tr><tr><td><div><table><tr><td><div>Twitter</div></td></tr><tr><td><div>False</div></td></tr><tr><td><div>http://twitter.com/web2py</div></td></tr></table></div></td></tr><tr><td><div><table><tr><td><div>Chat ao vivo</div></td></tr><tr><td><div>False</div></td></tr><tr><td><div>http://webchat.freenode.net/?channels=web2py</div></td></tr></table></div></td></tr></table></div></td></tr></table></div></td></tr></table></div></td></tr><tr><td style="font-weight:bold;vertical-align:top;">meta</td><td style="vertical-align:top;">:</td><td><div><table><tr><td style="font-weight:bold;vertical-align:top;">author</td><td style="vertical-align:top;">:</td><td><div>Your Name &lt;you@example.com&gt;</div></td></tr><tr><td style="font-weight:bold;vertical-align:top;">description</td><td style="vertical-align:top;">:</td><td><div>a cool new app</div></td></tr><tr><td style="font-weight:bold;vertical-align:top;">generator</td><td style="vertical-align:top;">:</td><td><div>Web2py Web Framework</div></td></tr><tr><td style="font-weight:bold;vertical-align:top;">keywords</td><td style="vertical-align:top;">:</td><td><div><table><tr><td><div>web2py</div></td></tr><tr><td><div>python</div></td></tr><tr><td><div>framework</div></td></tr></table></div></td></tr></table></div></td></tr><tr><td style="font-weight:bold;vertical-align:top;">models_to_run</td><td style="vertical-align:top;">:</td><td><div><table><tr><td><div>^\\w+\\.py$</div></td></tr><tr><td><div>^default/\\w+\\.py$</div></td></tr><tr><td><div>^default/planos_de_acao/\\w+\\.py$</div></td></tr></table></div></td></tr><tr><td style="font-weight:bold;vertical-align:top;">postprocessing</td><td style="vertical-align:top;">:</td><td><div><table></table></div></td></tr><tr><td style="font-weight:bold;vertical-align:top;">session_client</td><td style="vertical-align:top;">:</td><td><div>127.0.0.1</div></td></tr><tr><td style="font-weight:bold;vertical-align:top;">session_cookie_compression_level</td><td style="vertical-align:top;">:</td><td><div>None</div></td></tr><tr><td style="font-weight:bold;vertical-align:top;">session_cookie_expires</td><td style="vertical-align:top;">:</td><td><div>None</div></td></tr><tr><td style="font-weight:bold;vertical-align:top;">session_data_name</td><td style="vertical-align:top;">:</td><td><div>session_data_plano_de_acao</div></td></tr><tr><td style="font-weight:bold;vertical-align:top;">session_file</td><td style="vertical-align:top;">:</td><td><div>&lt;open file &#x27;/home/amauri/web2py/applications/plano_de_acao/sessions/095/1e9/127.0.0.1-52c9733a-987b-4ed4-99da-faa8330e636c&#x27;, mode &#x27;rb+&#x27; at 0x7f9e4442b300&gt;</div></td></tr><tr><td style="font-weight:bold;vertical-align:top;">session_filename</td><td style="vertical-align:top;">:</td><td><div>/home/amauri/web2py/applications/plano_de_acao/sessions/127.0.0.1-52c9733a-987b-4ed4-99da-faa8330e636c</div></td></tr><tr><td style="font-weight:bold;vertical-align:top;">session_hash</td><td style="vertical-align:top;">:</td><td><div>f91e830f0eaa9f37a684ccb297c24040</div></td></tr><tr><td style="font-weight:bold;vertical-align:top;">session_id</td><td style="vertical-align:top;">:</td><td><div>127.0.0.1-52c9733a-987b-4ed4-99da-faa8330e636c</div></td></tr><tr><td style="font-weight:bold;vertical-align:top;">session_id_name</td><td style="vertical-align:top;">:</td><td><div>session_id_plano_de_acao</div></td></tr><tr><td style="font-weight:bold;vertical-align:top;">session_locked</td><td style="vertical-align:top;">:</td><td><div>True</div></td></tr><tr><td style="font-weight:bold;vertical-align:top;">session_masterapp</td><td style="vertical-align:top;">:</td><td><div>plano_de_acao</div></td></tr><tr><td style="font-weight:bold;vertical-align:top;">session_new</td><td style="vertical-align:top;">:</td><td><div>False</div></td></tr><tr><td style="font-weight:bold;vertical-align:top;">session_storage_type</td><td style="vertical-align:top;">:</td><td><div>file</div></td></tr><tr><td style="font-weight:bold;vertical-align:top;">status</td><td style="vertical-align:top;">:</td><td><div>200</div></td></tr><tr><td style="font-weight:bold;vertical-align:top;">subtitle</td><td style="vertical-align:top;">:</td><td><div></div></td></tr><tr><td style="font-weight:bold;vertical-align:top;">title</td><td style="vertical-align:top;">:</td><td><div>Plano De Acao</div></td></tr><tr><td style="font-weight:bold;vertical-align:top;">view</td><td style="vertical-align:top;">:</td><td><div>default/planos_de_acao.html</div></td></tr></table></div>'
tRp129
sS'locals'
p130
(dp131
S'Service'
p132
S"<class 'gluon.tools.Service'>"
p133
sS'OBJECT'
p134
S"<class 'gluon.html.OBJECT'>"
p135
sS'SQLDB'
p136
S"<class 'pydal.base.DAL'>"
p137
sg122
S"<Storage {'last_query': 'db.plano.id>0', '_auth_...9c4e5', '6e0ff0b0-2bba-458a-92a3-f96e95ffb7d4']}>"
p138
sS'LINK'
p139
S"<class 'gluon.html.LINK'>"
p140
sS'BR'
p141
S"<class 'gluon.html.BR'>"
p142
sS'local_import'
p143
S'<function <lambda>>'
p144
sS'OPTGROUP'
p145
S"<class 'gluon.html.OPTGROUP'>"
p146
sS'__package__'
p147
S'None'
p148
sS'PRE'
p149
S"<class 'gluon.html.PRE'>"
p150
sS'IS_INT_IN_RANGE'
p151
S"<class 'gluon.validators.IS_INT_IN_RANGE'>"
p152
sS'left_sidebar_enabled'
p153
S'False'
p154
sS'IS_LOWER'
p155
S"<class 'gluon.validators.IS_LOWER'>"
p156
sS'IS_STRONG'
p157
S"<class 'gluon.validators.IS_STRONG'>"
p158
sS'cache'
p159
S'<gluon.cache.Cache object>'
p160
sS'IS_IN_DB'
p161
S"<class 'gluon.validators.IS_IN_DB'>"
p162
sS'TAG'
p163
S'<gluon.html.__TAG__ object>'
p164
sS'SQLField'
p165
S"<class 'pydal.objects.Field'>"
p166
sS'mail'
p167
S'<gluon.tools.Mail object>'
p168
sS'BODY'
p169
S"<class 'gluon.html.BODY'>"
p170
sS'IS_DATE_IN_RANGE'
p171
S"<class 'gluon.validators.IS_DATE_IN_RANGE'>"
p172
sS'IFRAME'
p173
S"<class 'gluon.html.IFRAME'>"
p174
sS'URL'
p175
S'<function URL>'
p176
sS'__file__'
p177
S"'/home/amauri/web2py/applications/plano_de_acao/views/default/planos_de_acao.html'"
p178
sS'db'
p179
S'<DAL uri="sqlite://storage.sqlite">'
p180
sS'auth'
p181
S'<gluon.tools.Auth object>'
p182
sS'P'
S"<class 'gluon.html.P'>"
p183
sS'TFOOT'
p184
S"<class 'gluon.html.TFOOT'>"
p185
sS'XHTML'
p186
S"<class 'gluon.html.XHTML'>"
p187
sS'datetime'
p188
S"<module 'datetime' (built-in)>"
p189
sS'ON'
p190
S'True'
p191
sS'OL'
p192
S"<class 'gluon.html.OL'>"
p193
sS'TEXTAREA'
p194
S"<class 'gluon.html.TEXTAREA'>"
p195
sS'MENU'
p196
S"<class 'gluon.html.MENU'>"
p197
sS'button'
p198
S'<gluon.html.A object>'
p199
sS'IS_IMAGE'
p200
S"<class 'gluon.validators.IS_IMAGE'>"
p201
sS'EM'
p202
S"<class 'gluon.html.EM'>"
p203
sS'CODE'
p204
S"<class 'gluon.html.CODE'>"
p205
sS'HTTP'
p206
S"<class 'gluon.http.HTTP'>"
p207
sS'DEP'
p208
S'<Table departamento (id, setor)>'
p209
sS'IS_DATETIME'
p210
S"<class 'gluon.validators.IS_DATETIME'>"
p211
sS'STYLE'
p212
S"<class 'gluon.html.STYLE'>"
p213
sS'LABEL'
p214
S"<class 'gluon.html.LABEL'>"
p215
sS'CLEANUP'
p216
S"<class 'gluon.validators.CLEANUP'>"
p217
sS'plugins'
p218
S'<gluon.tools.PluginManager object>'
p219
sS'SELECT'
p220
S"<class 'gluon.html.SELECT'>"
p221
sS'CENTER'
p222
S"<class 'gluon.html.CENTER'>"
p223
sS'prettydate'
p224
S'<function prettydate>'
p225
sS'Auth'
p226
S"<class 'gluon.tools.Auth'>"
p227
sS'DEVELOPMENT_MENU'
p228
g191
sS'__builtins__'
p229
S"{'ArithmeticError': <type 'exceptions.ArithmeticError'>, 'AssertionError': <type 'exceptions.AssertionError'>, 'AttributeError': <type 'exceptions.AttributeError'>, 'BaseException': <type 'exceptions.BaseException'>, 'BufferError': <type 'exceptions.BufferError'>, 'BytesWarning': <type 'exceptions.BytesWarning'>, 'DeprecationWarning': <type 'exceptions.DeprecationWarning'>, 'EOFError': <type 'exceptions.EOFError'>, 'Ellipsis': Ellipsis, 'EnvironmentError': <type 'exceptions.EnvironmentError'>, ...}"
p230
sS'HTML'
p231
S"<class 'gluon.html.HTML'>"
p232
sS'SQLFORM'
p233
S"<class 'gluon.sqlhtml.SQLFORM'>"
p234
sS'LOAD'
p235
S'<function LOAD>'
p236
sS'redirect'
p237
S'<function redirect>'
p238
sS'FIELDSET'
p239
S"<class 'gluon.html.FIELDSET'>"
p240
sS'IS_EQUAL_TO'
p241
S"<class 'gluon.validators.IS_EQUAL_TO'>"
p242
sS'embed64'
p243
S'<function embed64>'
p244
sS'IS_LIST_OF'
p245
S"<class 'gluon.validators.IS_LIST_OF'>"
p246
sS'INPUT'
p247
S"<class 'gluon.html.INPUT'>"
p248
sS'EMBED'
p249
S"<class 'gluon.html.EMBED'>"
p250
sS'_'
S'<function _>'
p251
sS'planos'
p252
S'<Rows (5)>'
p253
sS'myconf'
p254
S"{'forms': {'formstyle': 'bootstrap3_inline', 'se...': {'names': 'localhost:*, 127.0.0.1:*, *:*, *'}}"
p255
sS'H2'
p256
S"<class 'gluon.html.H2'>"
p257
sS'H3'
p258
S"<class 'gluon.html.H3'>"
p259
sS'AppConfig'
p260
S'<function AppConfig>'
p261
sS'H1'
p262
S"<class 'gluon.html.H1'>"
p263
sS'H6'
p264
S"<class 'gluon.html.H6'>"
p265
sS'H4'
p266
S"<class 'gluon.html.H4'>"
p267
sS'H5'
p268
S"<class 'gluon.html.H5'>"
p269
sS'UL'
p270
S"<class 'gluon.html.UL'>"
p271
sS'IS_UPPER'
p272
S"<class 'gluon.validators.IS_UPPER'>"
p273
sS'xmlescape'
p274
S'<function xmlescape>'
p275
sS'IS_TIME'
p276
S"<class 'gluon.validators.IS_TIME'>"
p277
sS'PROB'
p278
S'<Table problemas (id, problema)>'
p279
sS'OPTION'
p280
S"<class 'gluon.html.OPTION'>"
p281
sS'TITLE'
p282
S"<class 'gluon.html.TITLE'>"
p283
sS'CRYPT'
p284
S"<class 'gluon.validators.CRYPT'>"
p285
sS'IS_EMPTY_OR'
p286
S"<class 'gluon.validators.IS_EMPTY_OR'>"
p287
sS'MARKMIN'
p288
S"<class 'gluon.html.MARKMIN'>"
p289
sS'__name__'
p290
S"'__restricted__'"
p291
sS'STRONG'
p292
S"<class 'gluon.html.STRONG'>"
p293
sS'COL'
p294
S"<class 'gluon.html.COL'>"
p295
sS'mc1'
p296
S"'col-md-9'"
p297
sS'mc0'
p298
S"'col-md-12'"
p299
sS'service'
p300
S'<gluon.tools.Service object>'
p301
sS'SCRIPT'
p302
S"<class 'gluon.html.SCRIPT'>"
p303
sS'HR'
p304
S"<class 'gluon.html.HR'>"
p305
sS'TABLE'
p306
S"<class 'gluon.html.TABLE'>"
p307
sS'IS_IPV4'
p308
S"<class 'gluon.validators.IS_IPV4'>"
p309
sS'IS_LENGTH'
p310
S"<class 'gluon.validators.IS_LENGTH'>"
p311
sS'IS_IPV6'
p312
S"<class 'gluon.validators.IS_IPV6'>"
p313
sS'XML'
p314
S"<class 'gluon.html.XML'>"
p315
sS'concluidos'
p316
S'<Rows (3)>'
p317
sS'B'
S"<class 'gluon.html.B'>"
p318
sS'IMG'
p319
S"<class 'gluon.html.IMG'>"
p320
sS'SQLTABLE'
p321
S"<class 'gluon.sqlhtml.SQLTABLE'>"
p322
sS'IS_MATCH'
p323
S"<class 'gluon.validators.IS_MATCH'>"
p324
sS'IS_ALPHANUMERIC'
p325
S"<class 'gluon.validators.IS_ALPHANUMERIC'>"
p326
sS'SPAN'
p327
S"<class 'gluon.html.SPAN'>"
p328
sS'IS_JSON'
p329
S"<class 'gluon.validators.IS_JSON'>"
p330
sS'IS_IPADDRESS'
p331
S"<class 'gluon.validators.IS_IPADDRESS'>"
p332
sS'IS_SLUG'
p333
S"<class 'gluon.validators.IS_SLUG'>"
p334
sS'BEAUTIFY'
p335
S"<class 'gluon.html.BEAUTIFY'>"
p336
sS'META'
p337
S"<class 'gluon.html.META'>"
p338
sS'BUTTON'
p339
S"<class 'gluon.html.BUTTON'>"
p340
sS'IS_DATE'
p341
S"<class 'gluon.validators.IS_DATE'>"
p342
sS'IS_EMAIL'
p343
S"<class 'gluon.validators.IS_EMAIL'>"
p344
sS'middle_column'
p345
S"'col-md-12'"
p346
sS'IS_NOT_EMPTY'
p347
S"<class 'gluon.validators.IS_NOT_EMPTY'>"
p348
sS'IS_FLOAT_IN_RANGE'
p349
S"<class 'gluon.validators.IS_FLOAT_IN_RANGE'>"
p350
sS'TBODY'
p351
S"<class 'gluon.html.TBODY'>"
p352
sS'CAT'
p353
S"<class 'gluon.html.CAT'>"
p354
sS'Field'
p355
S"<class 'pydal.objects.Field'>"
p356
sS'mc2'
p357
S"'col-md-6'"
p358
sS'IS_LIST_OF_EMAILS'
p359
S"<class 'gluon.validators.IS_LIST_OF_EMAILS'>"
p360
sS'DIV'
p361
S"<class 'gluon.html.DIV'>"
p362
sS'LEGEND'
p363
S"<class 'gluon.html.LEGEND'>"
p364
sS'form'
p365
S'<gluon.sqlhtml.SQLFORM object>'
p366
sS'COLGROUP'
p367
S"<class 'gluon.html.COLGROUP'>"
p368
sS'DAL'
p369
S"<class 'pydal.base.DAL'>"
p370
sS'ASSIGNJS'
p371
S'<function ASSIGNJS>'
p372
sS'TR'
p373
S"<class 'gluon.html.TR'>"
p374
sS'LI'
p375
S"<class 'gluon.html.LI'>"
p376
sS'right_sidebar_enabled'
p377
g154
sS'TH'
p378
S"<class 'gluon.html.TH'>"
p379
sS'TD'
p380
S"<class 'gluon.html.TD'>"
p381
sS'PluginManager'
p382
S"<class 'gluon.tools.PluginManager'>"
p383
sS'IS_URL'
p384
S"<class 'gluon.validators.IS_URL'>"
p385
sS'A'
S"<class 'gluon.html.A'>"
p386
sS'HEAD'
p387
S"<class 'gluon.html.HEAD'>"
p388
sS'IS_DATETIME_IN_RANGE'
p389
S"<class 'gluon.validators.IS_DATETIME_IN_RANGE'>"
p390
sS'FORM'
p391
S"<class 'gluon.html.FORM'>"
p392
sS'I'
S"<class 'gluon.html.I'>"
p393
sS'IS_NOT_IN_DB'
p394
S"<class 'gluon.validators.IS_NOT_IN_DB'>"
p395
sg128
S"<Storage {'body': <cStringIO.StringO object at 0...200a8c0>, 'view': 'default/planos_de_acao.html'}>"
p396
sS'THEAD'
p397
S"<class 'gluon.html.THEAD'>"
p398
sS'ANY_OF'
p399
S"<class 'gluon.validators.ANY_OF'>"
p400
sS'IS_NULL_OR'
p401
S"<class 'gluon.validators.IS_EMPTY_OR'>"
p402
sg56
S"<Storage {'_vars': None, 'function': 'planos_de_...home/amauri/web2py/applications/plano_de_acao/'}>"
p403
sS'IS_EXPR'
p404
S"<class 'gluon.validators.IS_EXPR'>"
p405
sS'T'
S'<gluon.languages.translator object>'
p406
sS'IS_IN_SET'
p407
S"<class 'gluon.validators.IS_IN_SET'>"
p408
sS'IS_UPLOAD_FILENAME'
p409
S"<class 'gluon.validators.IS_UPLOAD_FILENAME'>"
p410
sS'PLANO'
p411
S'<Table plano (id, depto, titulo, descricao, plan...reated_on, created_by, modified_on, modified_by)>'
p412
sS'TT'
p413
S"<class 'gluon.html.TT'>"
p414
sS'IS_DECIMAL_IN_RANGE'
p415
S"<class 'gluon.validators.IS_DECIMAL_IN_RANGE'>"
p416
sssS'traceback'
p417
S'Traceback (most recent call last):\n  File "/home/amauri/web2py/gluon/restricted.py", line 227, in restricted\n    exec ccode in environment\n  File "/home/amauri/web2py/applications/plano_de_acao/views/default/planos_de_acao.html", line 63, in <module>\n    <span class="glyphicon glyphicon-triangle-bottom" aria-hidden="true"></span></button></th>\nAttributeError: \'Auth\' object has no attribute \'bem\'\n'
p418
s.