(dp1
S'output'
p2
S"<type 'exceptions.NameError'> name 'middle_column' is not defined"
p3
sS'layer'
p4
S'/home/amauri/web2py/applications/plano_de_acao/views/default/atendimentos.html'
p5
sS'code'
p6
S'response.write(\'<!DOCTYPE html>\\n<html>\\n<head>\\n\\t<meta charset="utf-8">\\n\\t<meta http-equiv="X-UA-Compatible" content="IE=edge">\\n\\t<title>\', escape=False)\nresponse.write(response.title or \'\')\nresponse.write(\'</title>\\n\\t\\n\\t\', escape=False)\nresponse.write(\'<script type="text/javascript"><!--\\n    // These variables are used by the web2py_ajax_init function in web2py_ajax.js (which is loaded below).\\n    var w2p_ajax_confirm_message = "\', escape=False)\nresponse.write(T(\'Are you sure you want to delete this object?\'))\nresponse.write(\'";\\n    var w2p_ajax_disable_with_message = "\', escape=False)\nresponse.write(T(\'Working...\'))\nresponse.write(\'";\\n    var w2p_ajax_date_format = "\', escape=False)\nresponse.write(T(\'%Y-%m-%d\'))\nresponse.write(\'";\\n    var w2p_ajax_datetime_format = "\', escape=False)\nresponse.write(T(\'%Y-%m-%d %H:%M:%S\'))\nresponse.write(\'";\\n    var ajax_error_500 = \\\'\', escape=False)\nresponse.write(T.M(\'An error occured, please [[reload %s]] the page\') % URL(args=request.args, vars=request.get_vars))\nresponse.write("\'\\n    //--></script>\\n", escape=False)\nresponse.files.insert(0,URL(\'static\',\'js/jquery.js\'))\nresponse.files.insert(1,URL(\'static\',\'css/calendar.css\'))\nresponse.files.insert(2,URL(\'static\',\'js/calendar.js\'))\nresponse.files.insert(3,URL(\'static\',\'js/web2py.js\'))\nresponse.include_meta()\nresponse.include_files()\nresponse.write(\'\\n\', escape=False)\nresponse.write(\'\\n\\n\\t<!-- JQuery UI -->\\n\\t<link rel="stylesheet" href="//code.jquery.com/ui/1.12.1/themes/base/jquery-ui.css">\\n\\t<link rel="stylesheet" href="/resources/demos/style.css">\\n\\t<script src="https://code.jquery.com/jquery-1.12.4.js"></script>\\n\\t<script src="https://code.jquery.com/ui/1.12.1/jquery-ui.js"></script>\\n\\t\\n\\t<!-- Semanticu UI em "static" -->\\n\\t<link rel="stylesheet" type="text/css" href="\', escape=False)\nresponse.write(URL(\'static\', \'css/semantic.min.css\'))\nresponse.write(\'">\\n\\t<script src="\', escape=False)\nresponse.write(URL(\'static\', \'js/semantic.min.js\'))\nresponse.write(\'"></script>\\n\\n\\t<!-- Semantic-UI CDN -->\\n\\t<!-- <link rel="stylesheet" href="https://cdnjs.cloudflare.com/ajax/libs/semantic-ui/2.2.6/components/icon.min.css"> -->\\n\\t<link rel="stylesheet" type="text/css" href="\', escape=False)\nresponse.write(URL(\'static\', \'Semantic-UI-CSS-master/components/accordion.min.css\'))\nresponse.write(\'">\\n\\t<script src="\', escape=False)\nresponse.write(URL(\'static\', \'Semantic-UI-CSS-master/components/accordion.min.js\'))\nresponse.write(\'"></script>\\n\\t<!-- <link rel="stylesheet" type="text/css" href="https://cdnjs.cloudflare.com/ajax/libs/semantic-ui/2.2.6/components/list.min.css"> -->\\n\\n\\t<!-- scripts javaScript -->\\n\\t<script type="text/javascript">\\n\\t\\t$(function(){\\n\\t\\t\\t$(\\\'.ui.accordion\\\').accordion();\\n\\t\\t\\t// $(\\\'#div_clima\\\').hide()\\n\\t\\t\\t// $(\\\'#div_fuso\\\').hide()\\n\\t\\t\\t// $(\\\'#div_cep\\\').hide()\\n\\t\\t});\\n\\t</script>\\n</head>\\n<body>\\n\\t<div class="\', escape=False)\nresponse.write(middle_column)\nresponse.write(\'">\\n\\t  \', escape=False)\nresponse.write(\'\\n\\t  \', escape=False)\nresponse.write(\'\\n\\n<div class="ui styled accordion">\\n  <div class="title">\\n    <i class="dropdown icon"></i>\\n    What is a dog?\\n  </div>\\n  <div class="content">\\n    <p class="transition hidden">A dog is a type of domesticated animal. Known for its loyalty and faithfulness, it can be found as a welcome guest in many households across the world.</p>\\n  </div>\\n  <div class="title">\\n    <i class="dropdown icon"></i>\\n    What kinds of dogs are there?\\n  </div>\\n  <div class="content">\\n    <p class="transition hidden">There are many breeds of dogs. Each breed varies in size and temperament. Owners often select a breed of dog that they find to be compatible with their own lifestyle and desires from a companion.</p>\\n  </div>\\n  <div class="title">\\n    <i class="dropdown icon"></i>\\n    How do you acquire a dog?\\n  </div>\\n  <div class="content">\\n    <p class="transition hidden">Three common ways for a prospective owner to acquire a dog is from pet shops, private owners, or shelters.</p>\\n    <p class="transition hidden">A pet shop may be the most convenient way to buy a dog. Buying a dog from a private owner allows you to assess the pedigree and upbringing of your dog before choosing to take it home. Lastly, finding your dog from a shelter, helps give a good home to a dog who may not find one so readily.</p>\\n  </div>\\n</div>\', escape=False)\nresponse.write(\'\\n\\t  \', escape=False)\nresponse.write(\'\\n\\t</div>\\n</body>\\n</html>\', escape=False)'
p7
sS'snapshot'
p8
(dp9
sS'traceback'
p10
S'Traceback (most recent call last):\n  File "/home/amauri/web2py/gluon/restricted.py", line 227, in restricted\n    exec ccode in environment\n  File "/home/amauri/web2py/applications/plano_de_acao/views/default/atendimentos.html", line 31, in <module>\nNameError: name \'middle_column\' is not defined\n'
p11
s.